                                      1 ;--------------------------------------------------------
                                      2 ; File Created by SDCC : free open source ANSI-C Compiler
                                      3 ; Version 3.6.0 #9615 (Linux)
                                      4 ;--------------------------------------------------------
                                      5 	.module aes
                                      6 	.optsdcc -mmcs51 --model-large
                                      7 	
                                      8 ;--------------------------------------------------------
                                      9 ; Public variables in this module
                                     10 ;--------------------------------------------------------
                                     11 	.globl _enc_dec_accel_galois_multiply
                                     12 	.globl _AES128_ECB_decrypt_PARM_3
                                     13 	.globl _AES128_ECB_decrypt_PARM_2
                                     14 	.globl _AES128_ECB_encrypt_PARM_3
                                     15 	.globl _AES128_ECB_encrypt_PARM_2
                                     16 	.globl _Key
                                     17 	.globl _RoundKey
                                     18 	.globl _state
                                     19 	.globl _AES128_ECB_encrypt
                                     20 	.globl _AES128_ECB_decrypt
                                     21 ;--------------------------------------------------------
                                     22 ; special function registers
                                     23 ;--------------------------------------------------------
                                     24 	.area RSEG    (ABS,DATA)
      000000                         25 	.org 0x0000
                                     26 ;--------------------------------------------------------
                                     27 ; special function bits
                                     28 ;--------------------------------------------------------
                                     29 	.area RSEG    (ABS,DATA)
      000000                         30 	.org 0x0000
                                     31 ;--------------------------------------------------------
                                     32 ; overlayable register banks
                                     33 ;--------------------------------------------------------
                                     34 	.area REG_BANK_0	(REL,OVR,DATA)
      000000                         35 	.ds 8
                                     36 ;--------------------------------------------------------
                                     37 ; internal ram data
                                     38 ;--------------------------------------------------------
                                     39 	.area DSEG    (DATA)
      000000                         40 _KeyExpansion_sloc0_1_0:
      000000                         41 	.ds 2
      000002                         42 _KeyExpansion_sloc1_1_0:
      000002                         43 	.ds 1
      000003                         44 _KeyExpansion_sloc2_1_0:
      000003                         45 	.ds 4
      000007                         46 _KeyExpansion_sloc3_1_0:
      000007                         47 	.ds 4
      00000B                         48 _KeyExpansion_sloc4_1_0:
      00000B                         49 	.ds 4
      00000F                         50 _MixColumns_sloc0_1_0:
      00000F                         51 	.ds 1
      000010                         52 _MixColumns_sloc1_1_0:
      000010                         53 	.ds 3
      000013                         54 _MixColumns_sloc2_1_0:
      000013                         55 	.ds 3
      000016                         56 _InvMixColumns_sloc0_1_0:
      000016                         57 	.ds 1
      000017                         58 _InvMixColumns_sloc1_1_0:
      000017                         59 	.ds 2
      000019                         60 _InvMixColumns_sloc2_1_0:
      000019                         61 	.ds 3
                                     62 ;--------------------------------------------------------
                                     63 ; overlayable items in internal ram 
                                     64 ;--------------------------------------------------------
                                     65 	.area	OSEG    (OVR,DATA)
      000000                         66 _AddRoundKey_sloc0_1_0:
      000000                         67 	.ds 1
      000001                         68 _AddRoundKey_sloc1_1_0:
      000001                         69 	.ds 1
                                     70 	.area	OSEG    (OVR,DATA)
      000000                         71 _BlockCopy_sloc0_1_0:
      000000                         72 	.ds 3
                                     73 ;--------------------------------------------------------
                                     74 ; indirectly addressable internal ram data
                                     75 ;--------------------------------------------------------
                                     76 	.area ISEG    (DATA)
                                     77 ;--------------------------------------------------------
                                     78 ; absolute internal ram data
                                     79 ;--------------------------------------------------------
                                     80 	.area IABS    (ABS,DATA)
                                     81 	.area IABS    (ABS,DATA)
                                     82 ;--------------------------------------------------------
                                     83 ; bit data
                                     84 ;--------------------------------------------------------
                                     85 	.area BSEG    (BIT)
                                     86 ;--------------------------------------------------------
                                     87 ; paged external ram data
                                     88 ;--------------------------------------------------------
                                     89 	.area PSEG    (PAG,XDATA)
                                     90 ;--------------------------------------------------------
                                     91 ; external ram data
                                     92 ;--------------------------------------------------------
                                     93 	.area XSEG    (XDATA)
      000000                         94 _state::
      000000                         95 	.ds 3
      000003                         96 _RoundKey::
      000003                         97 	.ds 176
      0000B3                         98 _Key::
      0000B3                         99 	.ds 3
      0000B6                        100 _getSBoxValue_num_1_24:
      0000B6                        101 	.ds 1
      0000B7                        102 _getSBoxInvert_num_1_26:
      0000B7                        103 	.ds 1
      0000B8                        104 _KeyExpansion_tempa_1_29:
      0000B8                        105 	.ds 4
      0000BC                        106 _AddRoundKey_round_1_38:
      0000BC                        107 	.ds 1
      0000BD                        108 _ShiftRows_temp_1_47:
      0000BD                        109 	.ds 1
      0000BE                        110 _xtime_x_1_48:
      0000BE                        111 	.ds 1
      0000BF                        112 _MixColumns_Tmp_1_51:
      0000BF                        113 	.ds 1
      0000C0                        114 _MixColumns_t_1_51:
      0000C0                        115 	.ds 1
      0000C1                        116 _InvMixColumns_a_1_54:
      0000C1                        117 	.ds 1
      0000C2                        118 _InvMixColumns_b_1_54:
      0000C2                        119 	.ds 1
      0000C3                        120 _InvMixColumns_c_1_54:
      0000C3                        121 	.ds 1
      0000C4                        122 _InvMixColumns_d_1_54:
      0000C4                        123 	.ds 1
      0000C5                        124 _InvShiftRows_temp_1_61:
      0000C5                        125 	.ds 1
      0000C6                        126 _BlockCopy_PARM_2:
      0000C6                        127 	.ds 3
      0000C9                        128 _BlockCopy_output_1_68:
      0000C9                        129 	.ds 3
      0000CC                        130 _AES128_ECB_encrypt_PARM_2:
      0000CC                        131 	.ds 3
      0000CF                        132 _AES128_ECB_encrypt_PARM_3:
      0000CF                        133 	.ds 3
      0000D2                        134 _AES128_ECB_encrypt_input_1_71:
      0000D2                        135 	.ds 3
      0000D5                        136 _AES128_ECB_decrypt_PARM_2:
      0000D5                        137 	.ds 3
      0000D8                        138 _AES128_ECB_decrypt_PARM_3:
      0000D8                        139 	.ds 3
      0000DB                        140 _AES128_ECB_decrypt_input_1_73:
      0000DB                        141 	.ds 3
                                    142 ;--------------------------------------------------------
                                    143 ; absolute external ram data
                                    144 ;--------------------------------------------------------
                                    145 	.area XABS    (ABS,XDATA)
                                    146 ;--------------------------------------------------------
                                    147 ; external initialized ram data
                                    148 ;--------------------------------------------------------
                                    149 	.area XISEG   (XDATA)
                                    150 	.area HOME    (CODE)
                                    151 	.area GSINIT0 (CODE)
                                    152 	.area GSINIT1 (CODE)
                                    153 	.area GSINIT2 (CODE)
                                    154 	.area GSINIT3 (CODE)
                                    155 	.area GSINIT4 (CODE)
                                    156 	.area GSINIT5 (CODE)
                                    157 	.area GSINIT  (CODE)
                                    158 	.area GSFINAL (CODE)
                                    159 	.area CSEG    (CODE)
                                    160 ;--------------------------------------------------------
                                    161 ; global & static initialisations
                                    162 ;--------------------------------------------------------
                                    163 	.area HOME    (CODE)
                                    164 	.area GSINIT  (CODE)
                                    165 	.area GSFINAL (CODE)
                                    166 	.area GSINIT  (CODE)
                                    167 ;--------------------------------------------------------
                                    168 ; Home
                                    169 ;--------------------------------------------------------
                                    170 	.area HOME    (CODE)
                                    171 	.area HOME    (CODE)
                                    172 ;--------------------------------------------------------
                                    173 ; code
                                    174 ;--------------------------------------------------------
                                    175 	.area CSEG    (CODE)
                                    176 ;------------------------------------------------------------
                                    177 ;Allocation info for local variables in function 'getSBoxValue'
                                    178 ;------------------------------------------------------------
                                    179 ;num                       Allocated with name '_getSBoxValue_num_1_24'
                                    180 ;------------------------------------------------------------
                                    181 ;	src/aes.c:147: static uint8_t getSBoxValue(uint8_t num)
                                    182 ;	-----------------------------------------
                                    183 ;	 function getSBoxValue
                                    184 ;	-----------------------------------------
      000000                        185 _getSBoxValue:
                           000007   186 	ar7 = 0x07
                           000006   187 	ar6 = 0x06
                           000005   188 	ar5 = 0x05
                           000004   189 	ar4 = 0x04
                           000003   190 	ar3 = 0x03
                           000002   191 	ar2 = 0x02
                           000001   192 	ar1 = 0x01
                           000000   193 	ar0 = 0x00
      000000 E5 82            [12]  194 	mov	a,dpl
      000002 90r00rB6         [24]  195 	mov	dptr,#_getSBoxValue_num_1_24
      000005 F0               [24]  196 	movx	@dptr,a
                                    197 ;	src/aes.c:149: return sbox[num];
      000006 E0               [24]  198 	movx	a,@dptr
      000007 90r00r00         [24]  199 	mov	dptr,#_sbox
      00000A 93               [24]  200 	movc	a,@a+dptr
      00000B F5 82            [12]  201 	mov	dpl,a
      00000D 22               [24]  202 	ret
                                    203 ;------------------------------------------------------------
                                    204 ;Allocation info for local variables in function 'getSBoxInvert'
                                    205 ;------------------------------------------------------------
                                    206 ;num                       Allocated with name '_getSBoxInvert_num_1_26'
                                    207 ;------------------------------------------------------------
                                    208 ;	src/aes.c:152: static uint8_t getSBoxInvert(uint8_t num)
                                    209 ;	-----------------------------------------
                                    210 ;	 function getSBoxInvert
                                    211 ;	-----------------------------------------
      00000E                        212 _getSBoxInvert:
      00000E E5 82            [12]  213 	mov	a,dpl
      000010 90r00rB7         [24]  214 	mov	dptr,#_getSBoxInvert_num_1_26
      000013 F0               [24]  215 	movx	@dptr,a
                                    216 ;	src/aes.c:154: return rsbox[num];
      000014 E0               [24]  217 	movx	a,@dptr
      000015 90r01r00         [24]  218 	mov	dptr,#_rsbox
      000018 93               [24]  219 	movc	a,@a+dptr
      000019 F5 82            [12]  220 	mov	dpl,a
      00001B 22               [24]  221 	ret
                                    222 ;------------------------------------------------------------
                                    223 ;Allocation info for local variables in function 'KeyExpansion'
                                    224 ;------------------------------------------------------------
                                    225 ;sloc0                     Allocated with name '_KeyExpansion_sloc0_1_0'
                                    226 ;sloc1                     Allocated with name '_KeyExpansion_sloc1_1_0'
                                    227 ;sloc2                     Allocated with name '_KeyExpansion_sloc2_1_0'
                                    228 ;sloc3                     Allocated with name '_KeyExpansion_sloc3_1_0'
                                    229 ;sloc4                     Allocated with name '_KeyExpansion_sloc4_1_0'
                                    230 ;i                         Allocated with name '_KeyExpansion_i_1_29'
                                    231 ;j                         Allocated with name '_KeyExpansion_j_1_29'
                                    232 ;k                         Allocated with name '_KeyExpansion_k_1_29'
                                    233 ;tempa                     Allocated with name '_KeyExpansion_tempa_1_29'
                                    234 ;------------------------------------------------------------
                                    235 ;	src/aes.c:158: static void KeyExpansion(void)
                                    236 ;	-----------------------------------------
                                    237 ;	 function KeyExpansion
                                    238 ;	-----------------------------------------
      00001C                        239 _KeyExpansion:
                                    240 ;	src/aes.c:164: for(i = 0; i < Nk; ++i)
      00001C 7C 00            [12]  241 	mov	r4,#0x00
      00001E 7D 00            [12]  242 	mov	r5,#0x00
      000020 7E 00            [12]  243 	mov	r6,#0x00
      000022 7F 00            [12]  244 	mov	r7,#0x00
      000024                        245 00110$:
                                    246 ;	src/aes.c:166: RoundKey[(i * 4) + 0] = Key[(i * 4) + 0];
      000024 8C 03            [24]  247 	mov	ar3,r4
      000026 EB               [12]  248 	mov	a,r3
      000027 2B               [12]  249 	add	a,r3
      000028 25 E0            [12]  250 	add	a,acc
      00002A F5*02            [12]  251 	mov	_KeyExpansion_sloc1_1_0,a
      00002C 24r03            [12]  252 	add	a,#_RoundKey
      00002E F5*00            [12]  253 	mov	_KeyExpansion_sloc0_1_0,a
      000030 E4               [12]  254 	clr	a
      000031 34s00            [12]  255 	addc	a,#(_RoundKey >> 8)
      000033 F5*01            [12]  256 	mov	(_KeyExpansion_sloc0_1_0 + 1),a
      000035 EC               [12]  257 	mov	a,r4
      000036 2C               [12]  258 	add	a,r4
      000037 F5*03            [12]  259 	mov	_KeyExpansion_sloc2_1_0,a
      000039 ED               [12]  260 	mov	a,r5
      00003A 33               [12]  261 	rlc	a
      00003B F5*04            [12]  262 	mov	(_KeyExpansion_sloc2_1_0 + 1),a
      00003D EE               [12]  263 	mov	a,r6
      00003E 33               [12]  264 	rlc	a
      00003F F5*05            [12]  265 	mov	(_KeyExpansion_sloc2_1_0 + 2),a
      000041 EF               [12]  266 	mov	a,r7
      000042 33               [12]  267 	rlc	a
      000043 F5*06            [12]  268 	mov	(_KeyExpansion_sloc2_1_0 + 3),a
      000045 E5*03            [12]  269 	mov	a,_KeyExpansion_sloc2_1_0
      000047 25*03            [12]  270 	add	a,_KeyExpansion_sloc2_1_0
      000049 F5*03            [12]  271 	mov	_KeyExpansion_sloc2_1_0,a
      00004B E5*04            [12]  272 	mov	a,(_KeyExpansion_sloc2_1_0 + 1)
      00004D 33               [12]  273 	rlc	a
      00004E F5*04            [12]  274 	mov	(_KeyExpansion_sloc2_1_0 + 1),a
      000050 E5*05            [12]  275 	mov	a,(_KeyExpansion_sloc2_1_0 + 2)
      000052 33               [12]  276 	rlc	a
      000053 F5*05            [12]  277 	mov	(_KeyExpansion_sloc2_1_0 + 2),a
      000055 E5*06            [12]  278 	mov	a,(_KeyExpansion_sloc2_1_0 + 3)
      000057 33               [12]  279 	rlc	a
      000058 F5*06            [12]  280 	mov	(_KeyExpansion_sloc2_1_0 + 3),a
      00005A 90r00rB3         [24]  281 	mov	dptr,#_Key
      00005D E0               [24]  282 	movx	a,@dptr
      00005E F9               [12]  283 	mov	r1,a
      00005F A3               [24]  284 	inc	dptr
      000060 E0               [24]  285 	movx	a,@dptr
      000061 FA               [12]  286 	mov	r2,a
      000062 A3               [24]  287 	inc	dptr
      000063 E0               [24]  288 	movx	a,@dptr
      000064 FB               [12]  289 	mov	r3,a
      000065 E5*03            [12]  290 	mov	a,_KeyExpansion_sloc2_1_0
      000067 29               [12]  291 	add	a,r1
      000068 F9               [12]  292 	mov	r1,a
      000069 E5*04            [12]  293 	mov	a,(_KeyExpansion_sloc2_1_0 + 1)
      00006B 3A               [12]  294 	addc	a,r2
      00006C FA               [12]  295 	mov	r2,a
      00006D 89 82            [24]  296 	mov	dpl,r1
      00006F 8A 83            [24]  297 	mov	dph,r2
      000071 8B F0            [24]  298 	mov	b,r3
      000073 12r00r00         [24]  299 	lcall	__gptrget
      000076 85*00 82         [24]  300 	mov	dpl,_KeyExpansion_sloc0_1_0
      000079 85*01 83         [24]  301 	mov	dph,(_KeyExpansion_sloc0_1_0 + 1)
      00007C F0               [24]  302 	movx	@dptr,a
                                    303 ;	src/aes.c:167: RoundKey[(i * 4) + 1] = Key[(i * 4) + 1];
      00007D E5*02            [12]  304 	mov	a,_KeyExpansion_sloc1_1_0
      00007F 04               [12]  305 	inc	a
      000080 24r03            [12]  306 	add	a,#_RoundKey
      000082 F5*00            [12]  307 	mov	_KeyExpansion_sloc0_1_0,a
      000084 E4               [12]  308 	clr	a
      000085 34s00            [12]  309 	addc	a,#(_RoundKey >> 8)
      000087 F5*01            [12]  310 	mov	(_KeyExpansion_sloc0_1_0 + 1),a
      000089 74 01            [12]  311 	mov	a,#0x01
      00008B 25*03            [12]  312 	add	a,_KeyExpansion_sloc2_1_0
      00008D F5*07            [12]  313 	mov	_KeyExpansion_sloc3_1_0,a
      00008F E4               [12]  314 	clr	a
      000090 35*04            [12]  315 	addc	a,(_KeyExpansion_sloc2_1_0 + 1)
      000092 F5*08            [12]  316 	mov	(_KeyExpansion_sloc3_1_0 + 1),a
      000094 E4               [12]  317 	clr	a
      000095 35*05            [12]  318 	addc	a,(_KeyExpansion_sloc2_1_0 + 2)
      000097 F5*09            [12]  319 	mov	(_KeyExpansion_sloc3_1_0 + 2),a
      000099 E4               [12]  320 	clr	a
      00009A 35*06            [12]  321 	addc	a,(_KeyExpansion_sloc2_1_0 + 3)
      00009C F5*0A            [12]  322 	mov	(_KeyExpansion_sloc3_1_0 + 3),a
      00009E 90r00rB3         [24]  323 	mov	dptr,#_Key
      0000A1 E0               [24]  324 	movx	a,@dptr
      0000A2 F9               [12]  325 	mov	r1,a
      0000A3 A3               [24]  326 	inc	dptr
      0000A4 E0               [24]  327 	movx	a,@dptr
      0000A5 FA               [12]  328 	mov	r2,a
      0000A6 A3               [24]  329 	inc	dptr
      0000A7 E0               [24]  330 	movx	a,@dptr
      0000A8 FB               [12]  331 	mov	r3,a
      0000A9 E5*07            [12]  332 	mov	a,_KeyExpansion_sloc3_1_0
      0000AB 29               [12]  333 	add	a,r1
      0000AC F9               [12]  334 	mov	r1,a
      0000AD E5*08            [12]  335 	mov	a,(_KeyExpansion_sloc3_1_0 + 1)
      0000AF 3A               [12]  336 	addc	a,r2
      0000B0 FA               [12]  337 	mov	r2,a
      0000B1 89 82            [24]  338 	mov	dpl,r1
      0000B3 8A 83            [24]  339 	mov	dph,r2
      0000B5 8B F0            [24]  340 	mov	b,r3
      0000B7 12r00r00         [24]  341 	lcall	__gptrget
      0000BA 85*00 82         [24]  342 	mov	dpl,_KeyExpansion_sloc0_1_0
      0000BD 85*01 83         [24]  343 	mov	dph,(_KeyExpansion_sloc0_1_0 + 1)
      0000C0 F0               [24]  344 	movx	@dptr,a
                                    345 ;	src/aes.c:168: RoundKey[(i * 4) + 2] = Key[(i * 4) + 2];
      0000C1 74 02            [12]  346 	mov	a,#0x02
      0000C3 25*02            [12]  347 	add	a,_KeyExpansion_sloc1_1_0
      0000C5 24r03            [12]  348 	add	a,#_RoundKey
      0000C7 F5*07            [12]  349 	mov	_KeyExpansion_sloc3_1_0,a
      0000C9 E4               [12]  350 	clr	a
      0000CA 34s00            [12]  351 	addc	a,#(_RoundKey >> 8)
      0000CC F5*08            [12]  352 	mov	(_KeyExpansion_sloc3_1_0 + 1),a
      0000CE 74 02            [12]  353 	mov	a,#0x02
      0000D0 25*03            [12]  354 	add	a,_KeyExpansion_sloc2_1_0
      0000D2 F5*0B            [12]  355 	mov	_KeyExpansion_sloc4_1_0,a
      0000D4 E4               [12]  356 	clr	a
      0000D5 35*04            [12]  357 	addc	a,(_KeyExpansion_sloc2_1_0 + 1)
      0000D7 F5*0C            [12]  358 	mov	(_KeyExpansion_sloc4_1_0 + 1),a
      0000D9 E4               [12]  359 	clr	a
      0000DA 35*05            [12]  360 	addc	a,(_KeyExpansion_sloc2_1_0 + 2)
      0000DC F5*0D            [12]  361 	mov	(_KeyExpansion_sloc4_1_0 + 2),a
      0000DE E4               [12]  362 	clr	a
      0000DF 35*06            [12]  363 	addc	a,(_KeyExpansion_sloc2_1_0 + 3)
      0000E1 F5*0E            [12]  364 	mov	(_KeyExpansion_sloc4_1_0 + 3),a
      0000E3 90r00rB3         [24]  365 	mov	dptr,#_Key
      0000E6 E0               [24]  366 	movx	a,@dptr
      0000E7 F9               [12]  367 	mov	r1,a
      0000E8 A3               [24]  368 	inc	dptr
      0000E9 E0               [24]  369 	movx	a,@dptr
      0000EA FA               [12]  370 	mov	r2,a
      0000EB A3               [24]  371 	inc	dptr
      0000EC E0               [24]  372 	movx	a,@dptr
      0000ED FB               [12]  373 	mov	r3,a
      0000EE E5*0B            [12]  374 	mov	a,_KeyExpansion_sloc4_1_0
      0000F0 29               [12]  375 	add	a,r1
      0000F1 F9               [12]  376 	mov	r1,a
      0000F2 E5*0C            [12]  377 	mov	a,(_KeyExpansion_sloc4_1_0 + 1)
      0000F4 3A               [12]  378 	addc	a,r2
      0000F5 FA               [12]  379 	mov	r2,a
      0000F6 89 82            [24]  380 	mov	dpl,r1
      0000F8 8A 83            [24]  381 	mov	dph,r2
      0000FA 8B F0            [24]  382 	mov	b,r3
      0000FC 12r00r00         [24]  383 	lcall	__gptrget
      0000FF 85*07 82         [24]  384 	mov	dpl,_KeyExpansion_sloc3_1_0
      000102 85*08 83         [24]  385 	mov	dph,(_KeyExpansion_sloc3_1_0 + 1)
      000105 F0               [24]  386 	movx	@dptr,a
                                    387 ;	src/aes.c:169: RoundKey[(i * 4) + 3] = Key[(i * 4) + 3];
      000106 74 03            [12]  388 	mov	a,#0x03
      000108 25*02            [12]  389 	add	a,_KeyExpansion_sloc1_1_0
      00010A 24r03            [12]  390 	add	a,#_RoundKey
      00010C F5*0B            [12]  391 	mov	_KeyExpansion_sloc4_1_0,a
      00010E E4               [12]  392 	clr	a
      00010F 34s00            [12]  393 	addc	a,#(_RoundKey >> 8)
      000111 F5*0C            [12]  394 	mov	(_KeyExpansion_sloc4_1_0 + 1),a
      000113 74 03            [12]  395 	mov	a,#0x03
      000115 25*03            [12]  396 	add	a,_KeyExpansion_sloc2_1_0
      000117 F5*07            [12]  397 	mov	_KeyExpansion_sloc3_1_0,a
      000119 E4               [12]  398 	clr	a
      00011A 35*04            [12]  399 	addc	a,(_KeyExpansion_sloc2_1_0 + 1)
      00011C F5*08            [12]  400 	mov	(_KeyExpansion_sloc3_1_0 + 1),a
      00011E E4               [12]  401 	clr	a
      00011F 35*05            [12]  402 	addc	a,(_KeyExpansion_sloc2_1_0 + 2)
      000121 F5*09            [12]  403 	mov	(_KeyExpansion_sloc3_1_0 + 2),a
      000123 E4               [12]  404 	clr	a
      000124 35*06            [12]  405 	addc	a,(_KeyExpansion_sloc2_1_0 + 3)
      000126 F5*0A            [12]  406 	mov	(_KeyExpansion_sloc3_1_0 + 3),a
      000128 90r00rB3         [24]  407 	mov	dptr,#_Key
      00012B E0               [24]  408 	movx	a,@dptr
      00012C F9               [12]  409 	mov	r1,a
      00012D A3               [24]  410 	inc	dptr
      00012E E0               [24]  411 	movx	a,@dptr
      00012F FA               [12]  412 	mov	r2,a
      000130 A3               [24]  413 	inc	dptr
      000131 E0               [24]  414 	movx	a,@dptr
      000132 FB               [12]  415 	mov	r3,a
      000133 E5*07            [12]  416 	mov	a,_KeyExpansion_sloc3_1_0
      000135 29               [12]  417 	add	a,r1
      000136 F9               [12]  418 	mov	r1,a
      000137 E5*08            [12]  419 	mov	a,(_KeyExpansion_sloc3_1_0 + 1)
      000139 3A               [12]  420 	addc	a,r2
      00013A FA               [12]  421 	mov	r2,a
      00013B 89 82            [24]  422 	mov	dpl,r1
      00013D 8A 83            [24]  423 	mov	dph,r2
      00013F 8B F0            [24]  424 	mov	b,r3
      000141 12r00r00         [24]  425 	lcall	__gptrget
      000144 F9               [12]  426 	mov	r1,a
      000145 85*0B 82         [24]  427 	mov	dpl,_KeyExpansion_sloc4_1_0
      000148 85*0C 83         [24]  428 	mov	dph,(_KeyExpansion_sloc4_1_0 + 1)
      00014B F0               [24]  429 	movx	@dptr,a
                                    430 ;	src/aes.c:164: for(i = 0; i < Nk; ++i)
      00014C 0C               [12]  431 	inc	r4
      00014D BC 00 09         [24]  432 	cjne	r4,#0x00,00142$
      000150 0D               [12]  433 	inc	r5
      000151 BD 00 05         [24]  434 	cjne	r5,#0x00,00142$
      000154 0E               [12]  435 	inc	r6
      000155 BE 00 01         [24]  436 	cjne	r6,#0x00,00142$
      000158 0F               [12]  437 	inc	r7
      000159                        438 00142$:
      000159 C3               [12]  439 	clr	c
      00015A EC               [12]  440 	mov	a,r4
      00015B 94 04            [12]  441 	subb	a,#0x04
      00015D ED               [12]  442 	mov	a,r5
      00015E 94 00            [12]  443 	subb	a,#0x00
      000160 EE               [12]  444 	mov	a,r6
      000161 94 00            [12]  445 	subb	a,#0x00
      000163 EF               [12]  446 	mov	a,r7
      000164 94 00            [12]  447 	subb	a,#0x00
      000166 50 03            [24]  448 	jnc	00143$
      000168 02r00r24         [24]  449 	ljmp	00110$
      00016B                        450 00143$:
      00016B                        451 00115$:
                                    452 ;	src/aes.c:173: for(; (i < (Nb * (Nr + 1))); ++i)
      00016B C3               [12]  453 	clr	c
      00016C EC               [12]  454 	mov	a,r4
      00016D 94 2C            [12]  455 	subb	a,#0x2c
      00016F ED               [12]  456 	mov	a,r5
      000170 94 00            [12]  457 	subb	a,#0x00
      000172 EE               [12]  458 	mov	a,r6
      000173 94 00            [12]  459 	subb	a,#0x00
      000175 EF               [12]  460 	mov	a,r7
      000176 94 00            [12]  461 	subb	a,#0x00
      000178 40 01            [24]  462 	jc	00144$
      00017A 22               [24]  463 	ret
      00017B                        464 00144$:
                                    465 ;	src/aes.c:175: for(j = 0; j < 4; ++j)
      00017B 8C 00            [24]  466 	mov	ar0,r4
      00017D 8D 01            [24]  467 	mov	ar1,r5
      00017F 8E 02            [24]  468 	mov	ar2,r6
      000181 8F 03            [24]  469 	mov	ar3,r7
      000183 E4               [12]  470 	clr	a
      000184 F5*0B            [12]  471 	mov	_KeyExpansion_sloc4_1_0,a
      000186 F5*0C            [12]  472 	mov	(_KeyExpansion_sloc4_1_0 + 1),a
      000188 F5*0D            [12]  473 	mov	(_KeyExpansion_sloc4_1_0 + 2),a
      00018A F5*0E            [12]  474 	mov	(_KeyExpansion_sloc4_1_0 + 3),a
      00018C                        475 00112$:
                                    476 ;	src/aes.c:177: tempa[j]=RoundKey[(i-1) * 4 + j];
      00018C C0 04            [24]  477 	push	ar4
      00018E C0 05            [24]  478 	push	ar5
      000190 C0 06            [24]  479 	push	ar6
      000192 C0 07            [24]  480 	push	ar7
      000194 E5*0B            [12]  481 	mov	a,_KeyExpansion_sloc4_1_0
      000196 24rB8            [12]  482 	add	a,#_KeyExpansion_tempa_1_29
      000198 FE               [12]  483 	mov	r6,a
      000199 E5*0C            [12]  484 	mov	a,(_KeyExpansion_sloc4_1_0 + 1)
      00019B 34s00            [12]  485 	addc	a,#(_KeyExpansion_tempa_1_29 >> 8)
      00019D FF               [12]  486 	mov	r7,a
      00019E 88 05            [24]  487 	mov	ar5,r0
      0001A0 1D               [12]  488 	dec	r5
      0001A1 ED               [12]  489 	mov	a,r5
      0001A2 2D               [12]  490 	add	a,r5
      0001A3 25 E0            [12]  491 	add	a,acc
      0001A5 FD               [12]  492 	mov	r5,a
      0001A6 E5*0B            [12]  493 	mov	a,_KeyExpansion_sloc4_1_0
      0001A8 FC               [12]  494 	mov	r4,a
      0001A9 2D               [12]  495 	add	a,r5
      0001AA 24r03            [12]  496 	add	a,#_RoundKey
      0001AC F5 82            [12]  497 	mov	dpl,a
      0001AE E4               [12]  498 	clr	a
      0001AF 34s00            [12]  499 	addc	a,#(_RoundKey >> 8)
      0001B1 F5 83            [12]  500 	mov	dph,a
      0001B3 E0               [24]  501 	movx	a,@dptr
      0001B4 FD               [12]  502 	mov	r5,a
      0001B5 8E 82            [24]  503 	mov	dpl,r6
      0001B7 8F 83            [24]  504 	mov	dph,r7
      0001B9 F0               [24]  505 	movx	@dptr,a
                                    506 ;	src/aes.c:175: for(j = 0; j < 4; ++j)
      0001BA 05*0B            [12]  507 	inc	_KeyExpansion_sloc4_1_0
      0001BC E4               [12]  508 	clr	a
      0001BD B5*0B 0C         [24]  509 	cjne	a,_KeyExpansion_sloc4_1_0,00145$
      0001C0 05*0C            [12]  510 	inc	(_KeyExpansion_sloc4_1_0 + 1)
      0001C2 B5*0C 07         [24]  511 	cjne	a,(_KeyExpansion_sloc4_1_0 + 1),00145$
      0001C5 05*0D            [12]  512 	inc	(_KeyExpansion_sloc4_1_0 + 2)
      0001C7 B5*0D 02         [24]  513 	cjne	a,(_KeyExpansion_sloc4_1_0 + 2),00145$
      0001CA 05*0E            [12]  514 	inc	(_KeyExpansion_sloc4_1_0 + 3)
      0001CC                        515 00145$:
      0001CC C3               [12]  516 	clr	c
      0001CD E5*0B            [12]  517 	mov	a,_KeyExpansion_sloc4_1_0
      0001CF 94 04            [12]  518 	subb	a,#0x04
      0001D1 E5*0C            [12]  519 	mov	a,(_KeyExpansion_sloc4_1_0 + 1)
      0001D3 94 00            [12]  520 	subb	a,#0x00
      0001D5 E5*0D            [12]  521 	mov	a,(_KeyExpansion_sloc4_1_0 + 2)
      0001D7 94 00            [12]  522 	subb	a,#0x00
      0001D9 E5*0E            [12]  523 	mov	a,(_KeyExpansion_sloc4_1_0 + 3)
      0001DB 94 00            [12]  524 	subb	a,#0x00
      0001DD D0 07            [24]  525 	pop	ar7
      0001DF D0 06            [24]  526 	pop	ar6
      0001E1 D0 05            [24]  527 	pop	ar5
      0001E3 D0 04            [24]  528 	pop	ar4
      0001E5 40 A5            [24]  529 	jc	00112$
                                    530 ;	src/aes.c:179: if (i % Nk == 0)
      0001E7 E8               [12]  531 	mov	a,r0
      0001E8 54 03            [12]  532 	anl	a,#0x03
      0001EA 60 03            [24]  533 	jz	00148$
      0001EC 02r02rB8         [24]  534 	ljmp	00108$
      0001EF                        535 00148$:
                                    536 ;	src/aes.c:186: k = tempa[0];
      0001EF C0 04            [24]  537 	push	ar4
      0001F1 C0 05            [24]  538 	push	ar5
      0001F3 C0 06            [24]  539 	push	ar6
      0001F5 C0 07            [24]  540 	push	ar7
      0001F7 90r00rB8         [24]  541 	mov	dptr,#_KeyExpansion_tempa_1_29
      0001FA E0               [24]  542 	movx	a,@dptr
      0001FB FF               [12]  543 	mov	r7,a
      0001FC 8F*0B            [24]  544 	mov	_KeyExpansion_sloc4_1_0,r7
      0001FE 75*0C 00         [24]  545 	mov	(_KeyExpansion_sloc4_1_0 + 1),#0x00
      000201 75*0D 00         [24]  546 	mov	(_KeyExpansion_sloc4_1_0 + 2),#0x00
      000204 75*0E 00         [24]  547 	mov	(_KeyExpansion_sloc4_1_0 + 3),#0x00
                                    548 ;	src/aes.c:187: tempa[0] = tempa[1];
      000207 90r00rB9         [24]  549 	mov	dptr,#(_KeyExpansion_tempa_1_29 + 0x0001)
      00020A E0               [24]  550 	movx	a,@dptr
      00020B FF               [12]  551 	mov	r7,a
      00020C 90r00rB8         [24]  552 	mov	dptr,#_KeyExpansion_tempa_1_29
      00020F F0               [24]  553 	movx	@dptr,a
                                    554 ;	src/aes.c:188: tempa[1] = tempa[2];
      000210 90r00rBA         [24]  555 	mov	dptr,#(_KeyExpansion_tempa_1_29 + 0x0002)
      000213 E0               [24]  556 	movx	a,@dptr
      000214 90r00rB9         [24]  557 	mov	dptr,#(_KeyExpansion_tempa_1_29 + 0x0001)
      000217 F0               [24]  558 	movx	@dptr,a
                                    559 ;	src/aes.c:189: tempa[2] = tempa[3];
      000218 90r00rBB         [24]  560 	mov	dptr,#(_KeyExpansion_tempa_1_29 + 0x0003)
      00021B E0               [24]  561 	movx	a,@dptr
      00021C 90r00rBA         [24]  562 	mov	dptr,#(_KeyExpansion_tempa_1_29 + 0x0002)
      00021F F0               [24]  563 	movx	@dptr,a
                                    564 ;	src/aes.c:190: tempa[3] = k;
      000220 AE*0B            [24]  565 	mov	r6,_KeyExpansion_sloc4_1_0
      000222 90r00rBB         [24]  566 	mov	dptr,#(_KeyExpansion_tempa_1_29 + 0x0003)
      000225 EE               [12]  567 	mov	a,r6
      000226 F0               [24]  568 	movx	@dptr,a
                                    569 ;	src/aes.c:198: tempa[0] = getSBoxValue(tempa[0]);
      000227 8F 82            [24]  570 	mov	dpl,r7
      000229 C0 06            [24]  571 	push	ar6
      00022B C0 05            [24]  572 	push	ar5
      00022D C0 04            [24]  573 	push	ar4
      00022F C0 03            [24]  574 	push	ar3
      000231 C0 02            [24]  575 	push	ar2
      000233 C0 01            [24]  576 	push	ar1
      000235 C0 00            [24]  577 	push	ar0
      000237 12r00r00         [24]  578 	lcall	_getSBoxValue
      00023A AF 82            [24]  579 	mov	r7,dpl
      00023C 90r00rB8         [24]  580 	mov	dptr,#_KeyExpansion_tempa_1_29
      00023F EF               [12]  581 	mov	a,r7
      000240 F0               [24]  582 	movx	@dptr,a
                                    583 ;	src/aes.c:199: tempa[1] = getSBoxValue(tempa[1]);
      000241 90r00rB9         [24]  584 	mov	dptr,#(_KeyExpansion_tempa_1_29 + 0x0001)
      000244 E0               [24]  585 	movx	a,@dptr
      000245 F5 82            [12]  586 	mov	dpl,a
      000247 12r00r00         [24]  587 	lcall	_getSBoxValue
      00024A AF 82            [24]  588 	mov	r7,dpl
      00024C 90r00rB9         [24]  589 	mov	dptr,#(_KeyExpansion_tempa_1_29 + 0x0001)
      00024F EF               [12]  590 	mov	a,r7
      000250 F0               [24]  591 	movx	@dptr,a
                                    592 ;	src/aes.c:200: tempa[2] = getSBoxValue(tempa[2]);
      000251 90r00rBA         [24]  593 	mov	dptr,#(_KeyExpansion_tempa_1_29 + 0x0002)
      000254 E0               [24]  594 	movx	a,@dptr
      000255 F5 82            [12]  595 	mov	dpl,a
      000257 12r00r00         [24]  596 	lcall	_getSBoxValue
      00025A AF 82            [24]  597 	mov	r7,dpl
      00025C 90r00rBA         [24]  598 	mov	dptr,#(_KeyExpansion_tempa_1_29 + 0x0002)
      00025F EF               [12]  599 	mov	a,r7
      000260 F0               [24]  600 	movx	@dptr,a
                                    601 ;	src/aes.c:201: tempa[3] = getSBoxValue(tempa[3]);
      000261 90r00rBB         [24]  602 	mov	dptr,#(_KeyExpansion_tempa_1_29 + 0x0003)
      000264 E0               [24]  603 	movx	a,@dptr
      000265 F5 82            [12]  604 	mov	dpl,a
      000267 12r00r00         [24]  605 	lcall	_getSBoxValue
      00026A AF 82            [24]  606 	mov	r7,dpl
      00026C D0 00            [24]  607 	pop	ar0
      00026E D0 01            [24]  608 	pop	ar1
      000270 D0 02            [24]  609 	pop	ar2
      000272 D0 03            [24]  610 	pop	ar3
      000274 D0 04            [24]  611 	pop	ar4
      000276 D0 05            [24]  612 	pop	ar5
      000278 D0 06            [24]  613 	pop	ar6
      00027A 90r00rBB         [24]  614 	mov	dptr,#(_KeyExpansion_tempa_1_29 + 0x0003)
      00027D EF               [12]  615 	mov	a,r7
      00027E F0               [24]  616 	movx	@dptr,a
                                    617 ;	src/aes.c:204: tempa[0] =  tempa[0] ^ Rcon[i/Nk];
      00027F 90r00rB8         [24]  618 	mov	dptr,#_KeyExpansion_tempa_1_29
      000282 E0               [24]  619 	movx	a,@dptr
      000283 FF               [12]  620 	mov	r7,a
      000284 EB               [12]  621 	mov	a,r3
      000285 C3               [12]  622 	clr	c
      000286 13               [12]  623 	rrc	a
      000287 FB               [12]  624 	mov	r3,a
      000288 EA               [12]  625 	mov	a,r2
      000289 13               [12]  626 	rrc	a
      00028A FA               [12]  627 	mov	r2,a
      00028B E9               [12]  628 	mov	a,r1
      00028C 13               [12]  629 	rrc	a
      00028D F9               [12]  630 	mov	r1,a
      00028E E8               [12]  631 	mov	a,r0
      00028F 13               [12]  632 	rrc	a
      000290 F8               [12]  633 	mov	r0,a
      000291 EB               [12]  634 	mov	a,r3
      000292 C3               [12]  635 	clr	c
      000293 13               [12]  636 	rrc	a
      000294 FB               [12]  637 	mov	r3,a
      000295 EA               [12]  638 	mov	a,r2
      000296 13               [12]  639 	rrc	a
      000297 FA               [12]  640 	mov	r2,a
      000298 E9               [12]  641 	mov	a,r1
      000299 13               [12]  642 	rrc	a
      00029A F9               [12]  643 	mov	r1,a
      00029B E8               [12]  644 	mov	a,r0
      00029C 13               [12]  645 	rrc	a
      00029D F8               [12]  646 	mov	r0,a
      00029E 24r00            [12]  647 	add	a,#_Rcon
      0002A0 F5 82            [12]  648 	mov	dpl,a
      0002A2 E9               [12]  649 	mov	a,r1
      0002A3 34s02            [12]  650 	addc	a,#(_Rcon >> 8)
      0002A5 F5 83            [12]  651 	mov	dph,a
      0002A7 E4               [12]  652 	clr	a
      0002A8 93               [24]  653 	movc	a,@a+dptr
      0002A9 62 07            [12]  654 	xrl	ar7,a
      0002AB 90r00rB8         [24]  655 	mov	dptr,#_KeyExpansion_tempa_1_29
      0002AE EF               [12]  656 	mov	a,r7
      0002AF F0               [24]  657 	movx	@dptr,a
                                    658 ;	src/aes.c:173: for(; (i < (Nb * (Nr + 1))); ++i)
      0002B0 D0 07            [24]  659 	pop	ar7
      0002B2 D0 06            [24]  660 	pop	ar6
      0002B4 D0 05            [24]  661 	pop	ar5
      0002B6 D0 04            [24]  662 	pop	ar4
                                    663 ;	src/aes.c:213: tempa[3] = getSBoxValue(tempa[3]);
      0002B8                        664 00108$:
                                    665 ;	src/aes.c:216: RoundKey[i * 4 + 0] = RoundKey[(i - Nk) * 4 + 0] ^ tempa[0];
      0002B8 8C 03            [24]  666 	mov	ar3,r4
      0002BA EB               [12]  667 	mov	a,r3
      0002BB 2B               [12]  668 	add	a,r3
      0002BC 25 E0            [12]  669 	add	a,acc
      0002BE FA               [12]  670 	mov	r2,a
      0002BF 24r03            [12]  671 	add	a,#_RoundKey
      0002C1 F5*0B            [12]  672 	mov	_KeyExpansion_sloc4_1_0,a
      0002C3 E4               [12]  673 	clr	a
      0002C4 34s00            [12]  674 	addc	a,#(_RoundKey >> 8)
      0002C6 F5*0C            [12]  675 	mov	(_KeyExpansion_sloc4_1_0 + 1),a
      0002C8 1B               [12]  676 	dec	r3
      0002C9 1B               [12]  677 	dec	r3
      0002CA 1B               [12]  678 	dec	r3
      0002CB 1B               [12]  679 	dec	r3
      0002CC EB               [12]  680 	mov	a,r3
      0002CD 2B               [12]  681 	add	a,r3
      0002CE 25 E0            [12]  682 	add	a,acc
      0002D0 FB               [12]  683 	mov	r3,a
      0002D1 24r03            [12]  684 	add	a,#_RoundKey
      0002D3 F5 82            [12]  685 	mov	dpl,a
      0002D5 E4               [12]  686 	clr	a
      0002D6 34s00            [12]  687 	addc	a,#(_RoundKey >> 8)
      0002D8 F5 83            [12]  688 	mov	dph,a
      0002DA E0               [24]  689 	movx	a,@dptr
      0002DB F9               [12]  690 	mov	r1,a
      0002DC 90r00rB8         [24]  691 	mov	dptr,#_KeyExpansion_tempa_1_29
      0002DF E0               [24]  692 	movx	a,@dptr
      0002E0 62 01            [12]  693 	xrl	ar1,a
      0002E2 85*0B 82         [24]  694 	mov	dpl,_KeyExpansion_sloc4_1_0
      0002E5 85*0C 83         [24]  695 	mov	dph,(_KeyExpansion_sloc4_1_0 + 1)
      0002E8 E9               [12]  696 	mov	a,r1
      0002E9 F0               [24]  697 	movx	@dptr,a
                                    698 ;	src/aes.c:217: RoundKey[i * 4 + 1] = RoundKey[(i - Nk) * 4 + 1] ^ tempa[1];
      0002EA EA               [12]  699 	mov	a,r2
      0002EB 04               [12]  700 	inc	a
      0002EC 24r03            [12]  701 	add	a,#_RoundKey
      0002EE F5*0B            [12]  702 	mov	_KeyExpansion_sloc4_1_0,a
      0002F0 E4               [12]  703 	clr	a
      0002F1 34s00            [12]  704 	addc	a,#(_RoundKey >> 8)
      0002F3 F5*0C            [12]  705 	mov	(_KeyExpansion_sloc4_1_0 + 1),a
      0002F5 EB               [12]  706 	mov	a,r3
      0002F6 04               [12]  707 	inc	a
      0002F7 24r03            [12]  708 	add	a,#_RoundKey
      0002F9 F5 82            [12]  709 	mov	dpl,a
      0002FB E4               [12]  710 	clr	a
      0002FC 34s00            [12]  711 	addc	a,#(_RoundKey >> 8)
      0002FE F5 83            [12]  712 	mov	dph,a
      000300 E0               [24]  713 	movx	a,@dptr
      000301 F9               [12]  714 	mov	r1,a
      000302 90r00rB9         [24]  715 	mov	dptr,#(_KeyExpansion_tempa_1_29 + 0x0001)
      000305 E0               [24]  716 	movx	a,@dptr
      000306 62 01            [12]  717 	xrl	ar1,a
      000308 85*0B 82         [24]  718 	mov	dpl,_KeyExpansion_sloc4_1_0
      00030B 85*0C 83         [24]  719 	mov	dph,(_KeyExpansion_sloc4_1_0 + 1)
      00030E E9               [12]  720 	mov	a,r1
      00030F F0               [24]  721 	movx	@dptr,a
                                    722 ;	src/aes.c:218: RoundKey[i * 4 + 2] = RoundKey[(i - Nk) * 4 + 2] ^ tempa[2];
      000310 74 02            [12]  723 	mov	a,#0x02
      000312 2A               [12]  724 	add	a,r2
      000313 24r03            [12]  725 	add	a,#_RoundKey
      000315 F5*0B            [12]  726 	mov	_KeyExpansion_sloc4_1_0,a
      000317 E4               [12]  727 	clr	a
      000318 34s00            [12]  728 	addc	a,#(_RoundKey >> 8)
      00031A F5*0C            [12]  729 	mov	(_KeyExpansion_sloc4_1_0 + 1),a
      00031C 74 02            [12]  730 	mov	a,#0x02
      00031E 2B               [12]  731 	add	a,r3
      00031F 24r03            [12]  732 	add	a,#_RoundKey
      000321 F5 82            [12]  733 	mov	dpl,a
      000323 E4               [12]  734 	clr	a
      000324 34s00            [12]  735 	addc	a,#(_RoundKey >> 8)
      000326 F5 83            [12]  736 	mov	dph,a
      000328 E0               [24]  737 	movx	a,@dptr
      000329 F9               [12]  738 	mov	r1,a
      00032A 90r00rBA         [24]  739 	mov	dptr,#(_KeyExpansion_tempa_1_29 + 0x0002)
      00032D E0               [24]  740 	movx	a,@dptr
      00032E 62 01            [12]  741 	xrl	ar1,a
      000330 85*0B 82         [24]  742 	mov	dpl,_KeyExpansion_sloc4_1_0
      000333 85*0C 83         [24]  743 	mov	dph,(_KeyExpansion_sloc4_1_0 + 1)
      000336 E9               [12]  744 	mov	a,r1
      000337 F0               [24]  745 	movx	@dptr,a
                                    746 ;	src/aes.c:219: RoundKey[i * 4 + 3] = RoundKey[(i - Nk) * 4 + 3] ^ tempa[3];
      000338 74 03            [12]  747 	mov	a,#0x03
      00033A 2A               [12]  748 	add	a,r2
      00033B 24r03            [12]  749 	add	a,#_RoundKey
      00033D F9               [12]  750 	mov	r1,a
      00033E E4               [12]  751 	clr	a
      00033F 34s00            [12]  752 	addc	a,#(_RoundKey >> 8)
      000341 FA               [12]  753 	mov	r2,a
      000342 74 03            [12]  754 	mov	a,#0x03
      000344 2B               [12]  755 	add	a,r3
      000345 24r03            [12]  756 	add	a,#_RoundKey
      000347 F5 82            [12]  757 	mov	dpl,a
      000349 E4               [12]  758 	clr	a
      00034A 34s00            [12]  759 	addc	a,#(_RoundKey >> 8)
      00034C F5 83            [12]  760 	mov	dph,a
      00034E E0               [24]  761 	movx	a,@dptr
      00034F FB               [12]  762 	mov	r3,a
      000350 90r00rBB         [24]  763 	mov	dptr,#(_KeyExpansion_tempa_1_29 + 0x0003)
      000353 E0               [24]  764 	movx	a,@dptr
      000354 F8               [12]  765 	mov	r0,a
      000355 62 03            [12]  766 	xrl	ar3,a
      000357 89 82            [24]  767 	mov	dpl,r1
      000359 8A 83            [24]  768 	mov	dph,r2
      00035B EB               [12]  769 	mov	a,r3
      00035C F0               [24]  770 	movx	@dptr,a
                                    771 ;	src/aes.c:173: for(; (i < (Nb * (Nr + 1))); ++i)
      00035D 0C               [12]  772 	inc	r4
      00035E BC 00 09         [24]  773 	cjne	r4,#0x00,00149$
      000361 0D               [12]  774 	inc	r5
      000362 BD 00 05         [24]  775 	cjne	r5,#0x00,00149$
      000365 0E               [12]  776 	inc	r6
      000366 BE 00 01         [24]  777 	cjne	r6,#0x00,00149$
      000369 0F               [12]  778 	inc	r7
      00036A                        779 00149$:
      00036A 02r01r6B         [24]  780 	ljmp	00115$
                                    781 ;------------------------------------------------------------
                                    782 ;Allocation info for local variables in function 'AddRoundKey'
                                    783 ;------------------------------------------------------------
                                    784 ;round                     Allocated with name '_AddRoundKey_round_1_38'
                                    785 ;i                         Allocated with name '_AddRoundKey_i_1_39'
                                    786 ;j                         Allocated with name '_AddRoundKey_j_1_39'
                                    787 ;sloc0                     Allocated with name '_AddRoundKey_sloc0_1_0'
                                    788 ;sloc1                     Allocated with name '_AddRoundKey_sloc1_1_0'
                                    789 ;------------------------------------------------------------
                                    790 ;	src/aes.c:225: static void AddRoundKey(uint8_t round)
                                    791 ;	-----------------------------------------
                                    792 ;	 function AddRoundKey
                                    793 ;	-----------------------------------------
      00036D                        794 _AddRoundKey:
      00036D E5 82            [12]  795 	mov	a,dpl
      00036F 90r00rBC         [24]  796 	mov	dptr,#_AddRoundKey_round_1_38
      000372 F0               [24]  797 	movx	@dptr,a
                                    798 ;	src/aes.c:228: for(i=0;i<4;++i)
      000373 E0               [24]  799 	movx	a,@dptr
      000374 C4               [12]  800 	swap	a
      000375 54 F0            [12]  801 	anl	a,#0xf0
      000377 FF               [12]  802 	mov	r7,a
      000378 7E 00            [12]  803 	mov	r6,#0x00
                                    804 ;	src/aes.c:230: for(j = 0; j < 4; ++j)
      00037A                        805 00109$:
      00037A EE               [12]  806 	mov	a,r6
      00037B F5*00            [12]  807 	mov	_AddRoundKey_sloc0_1_0,a
      00037D 25 E0            [12]  808 	add	a,acc
      00037F 25 E0            [12]  809 	add	a,acc
      000381 FC               [12]  810 	mov	r4,a
      000382 2F               [12]  811 	add	a,r7
      000383 FB               [12]  812 	mov	r3,a
      000384 7A 00            [12]  813 	mov	r2,#0x00
      000386                        814 00103$:
                                    815 ;	src/aes.c:232: (*state)[i][j] ^= RoundKey[round * Nb * 4 + i * Nb + j];
      000386 C0 07            [24]  816 	push	ar7
      000388 90r00r00         [24]  817 	mov	dptr,#_state
      00038B E0               [24]  818 	movx	a,@dptr
      00038C F8               [12]  819 	mov	r0,a
      00038D A3               [24]  820 	inc	dptr
      00038E E0               [24]  821 	movx	a,@dptr
      00038F F9               [12]  822 	mov	r1,a
      000390 A3               [24]  823 	inc	dptr
      000391 E0               [24]  824 	movx	a,@dptr
      000392 FF               [12]  825 	mov	r7,a
      000393 EC               [12]  826 	mov	a,r4
      000394 28               [12]  827 	add	a,r0
      000395 F8               [12]  828 	mov	r0,a
      000396 E4               [12]  829 	clr	a
      000397 39               [12]  830 	addc	a,r1
      000398 F9               [12]  831 	mov	r1,a
      000399 EA               [12]  832 	mov	a,r2
      00039A 28               [12]  833 	add	a,r0
      00039B F8               [12]  834 	mov	r0,a
      00039C E4               [12]  835 	clr	a
      00039D 39               [12]  836 	addc	a,r1
      00039E F9               [12]  837 	mov	r1,a
      00039F EA               [12]  838 	mov	a,r2
      0003A0 2B               [12]  839 	add	a,r3
      0003A1 24r03            [12]  840 	add	a,#_RoundKey
      0003A3 F5 82            [12]  841 	mov	dpl,a
      0003A5 E4               [12]  842 	clr	a
      0003A6 34s00            [12]  843 	addc	a,#(_RoundKey >> 8)
      0003A8 F5 83            [12]  844 	mov	dph,a
      0003AA E0               [24]  845 	movx	a,@dptr
      0003AB F5*01            [12]  846 	mov	_AddRoundKey_sloc1_1_0,a
      0003AD 88 82            [24]  847 	mov	dpl,r0
      0003AF 89 83            [24]  848 	mov	dph,r1
      0003B1 8F F0            [24]  849 	mov	b,r7
      0003B3 12r00r00         [24]  850 	lcall	__gptrget
      0003B6 FD               [12]  851 	mov	r5,a
      0003B7 E5*01            [12]  852 	mov	a,_AddRoundKey_sloc1_1_0
      0003B9 62 05            [12]  853 	xrl	ar5,a
      0003BB 88 82            [24]  854 	mov	dpl,r0
      0003BD 89 83            [24]  855 	mov	dph,r1
      0003BF 8F F0            [24]  856 	mov	b,r7
      0003C1 ED               [12]  857 	mov	a,r5
      0003C2 12r00r00         [24]  858 	lcall	__gptrput
                                    859 ;	src/aes.c:230: for(j = 0; j < 4; ++j)
      0003C5 0A               [12]  860 	inc	r2
      0003C6 BA 04 00         [24]  861 	cjne	r2,#0x04,00120$
      0003C9                        862 00120$:
      0003C9 D0 07            [24]  863 	pop	ar7
      0003CB 40 B9            [24]  864 	jc	00103$
                                    865 ;	src/aes.c:228: for(i=0;i<4;++i)
      0003CD E5*00            [12]  866 	mov	a,_AddRoundKey_sloc0_1_0
      0003CF 04               [12]  867 	inc	a
      0003D0 FE               [12]  868 	mov	r6,a
      0003D1 BE 04 00         [24]  869 	cjne	r6,#0x04,00122$
      0003D4                        870 00122$:
      0003D4 40 A4            [24]  871 	jc	00109$
      0003D6 22               [24]  872 	ret
                                    873 ;------------------------------------------------------------
                                    874 ;Allocation info for local variables in function 'SubBytes'
                                    875 ;------------------------------------------------------------
                                    876 ;i                         Allocated with name '_SubBytes_i_1_43'
                                    877 ;j                         Allocated with name '_SubBytes_j_1_43'
                                    878 ;------------------------------------------------------------
                                    879 ;	src/aes.c:239: static void SubBytes(void)
                                    880 ;	-----------------------------------------
                                    881 ;	 function SubBytes
                                    882 ;	-----------------------------------------
      0003D7                        883 _SubBytes:
                                    884 ;	src/aes.c:242: for(i = 0; i < 4; ++i)
      0003D7 7F 00            [12]  885 	mov	r7,#0x00
                                    886 ;	src/aes.c:244: for(j = 0; j < 4; ++j)
      0003D9                        887 00109$:
      0003D9 8F 06            [24]  888 	mov	ar6,r7
      0003DB 7D 00            [12]  889 	mov	r5,#0x00
      0003DD                        890 00103$:
                                    891 ;	src/aes.c:246: (*state)[j][i] = getSBoxValue((*state)[j][i]);
      0003DD 90r00r00         [24]  892 	mov	dptr,#_state
      0003E0 E0               [24]  893 	movx	a,@dptr
      0003E1 FA               [12]  894 	mov	r2,a
      0003E2 A3               [24]  895 	inc	dptr
      0003E3 E0               [24]  896 	movx	a,@dptr
      0003E4 FB               [12]  897 	mov	r3,a
      0003E5 A3               [24]  898 	inc	dptr
      0003E6 E0               [24]  899 	movx	a,@dptr
      0003E7 FC               [12]  900 	mov	r4,a
      0003E8 ED               [12]  901 	mov	a,r5
      0003E9 2D               [12]  902 	add	a,r5
      0003EA 25 E0            [12]  903 	add	a,acc
      0003EC 2A               [12]  904 	add	a,r2
      0003ED FA               [12]  905 	mov	r2,a
      0003EE E4               [12]  906 	clr	a
      0003EF 3B               [12]  907 	addc	a,r3
      0003F0 FB               [12]  908 	mov	r3,a
      0003F1 EE               [12]  909 	mov	a,r6
      0003F2 2A               [12]  910 	add	a,r2
      0003F3 FA               [12]  911 	mov	r2,a
      0003F4 E4               [12]  912 	clr	a
      0003F5 3B               [12]  913 	addc	a,r3
      0003F6 FB               [12]  914 	mov	r3,a
      0003F7 8A 82            [24]  915 	mov	dpl,r2
      0003F9 8B 83            [24]  916 	mov	dph,r3
      0003FB 8C F0            [24]  917 	mov	b,r4
      0003FD 12r00r00         [24]  918 	lcall	__gptrget
      000400 F5 82            [12]  919 	mov	dpl,a
      000402 C0 06            [24]  920 	push	ar6
      000404 C0 05            [24]  921 	push	ar5
      000406 C0 04            [24]  922 	push	ar4
      000408 C0 03            [24]  923 	push	ar3
      00040A C0 02            [24]  924 	push	ar2
      00040C 12r00r00         [24]  925 	lcall	_getSBoxValue
      00040F A9 82            [24]  926 	mov	r1,dpl
      000411 D0 02            [24]  927 	pop	ar2
      000413 D0 03            [24]  928 	pop	ar3
      000415 D0 04            [24]  929 	pop	ar4
      000417 D0 05            [24]  930 	pop	ar5
      000419 D0 06            [24]  931 	pop	ar6
      00041B 8A 82            [24]  932 	mov	dpl,r2
      00041D 8B 83            [24]  933 	mov	dph,r3
      00041F 8C F0            [24]  934 	mov	b,r4
      000421 E9               [12]  935 	mov	a,r1
      000422 12r00r00         [24]  936 	lcall	__gptrput
                                    937 ;	src/aes.c:244: for(j = 0; j < 4; ++j)
      000425 0D               [12]  938 	inc	r5
      000426 BD 04 00         [24]  939 	cjne	r5,#0x04,00120$
      000429                        940 00120$:
      000429 40 B2            [24]  941 	jc	00103$
                                    942 ;	src/aes.c:242: for(i = 0; i < 4; ++i)
      00042B EE               [12]  943 	mov	a,r6
      00042C 04               [12]  944 	inc	a
      00042D FF               [12]  945 	mov	r7,a
      00042E BF 04 00         [24]  946 	cjne	r7,#0x04,00122$
      000431                        947 00122$:
      000431 40 A6            [24]  948 	jc	00109$
      000433 22               [24]  949 	ret
                                    950 ;------------------------------------------------------------
                                    951 ;Allocation info for local variables in function 'ShiftRows'
                                    952 ;------------------------------------------------------------
                                    953 ;temp                      Allocated with name '_ShiftRows_temp_1_47'
                                    954 ;------------------------------------------------------------
                                    955 ;	src/aes.c:254: static void ShiftRows(void)
                                    956 ;	-----------------------------------------
                                    957 ;	 function ShiftRows
                                    958 ;	-----------------------------------------
      000434                        959 _ShiftRows:
                                    960 ;	src/aes.c:259: temp           = (*state)[0][1];
      000434 90r00r00         [24]  961 	mov	dptr,#_state
      000437 E0               [24]  962 	movx	a,@dptr
      000438 FD               [12]  963 	mov	r5,a
      000439 A3               [24]  964 	inc	dptr
      00043A E0               [24]  965 	movx	a,@dptr
      00043B FE               [12]  966 	mov	r6,a
      00043C A3               [24]  967 	inc	dptr
      00043D E0               [24]  968 	movx	a,@dptr
      00043E FF               [12]  969 	mov	r7,a
      00043F 74 01            [12]  970 	mov	a,#0x01
      000441 2D               [12]  971 	add	a,r5
      000442 FA               [12]  972 	mov	r2,a
      000443 E4               [12]  973 	clr	a
      000444 3E               [12]  974 	addc	a,r6
      000445 FB               [12]  975 	mov	r3,a
      000446 8F 04            [24]  976 	mov	ar4,r7
      000448 8A 82            [24]  977 	mov	dpl,r2
      00044A 8B 83            [24]  978 	mov	dph,r3
      00044C 8C F0            [24]  979 	mov	b,r4
      00044E 12r00r00         [24]  980 	lcall	__gptrget
      000451 90r00rBD         [24]  981 	mov	dptr,#_ShiftRows_temp_1_47
      000454 F0               [24]  982 	movx	@dptr,a
                                    983 ;	src/aes.c:260: (*state)[0][1] = (*state)[1][1];
      000455 74 05            [12]  984 	mov	a,#0x05
      000457 2D               [12]  985 	add	a,r5
      000458 FD               [12]  986 	mov	r5,a
      000459 E4               [12]  987 	clr	a
      00045A 3E               [12]  988 	addc	a,r6
      00045B FE               [12]  989 	mov	r6,a
      00045C 8D 82            [24]  990 	mov	dpl,r5
      00045E 8E 83            [24]  991 	mov	dph,r6
      000460 8F F0            [24]  992 	mov	b,r7
      000462 12r00r00         [24]  993 	lcall	__gptrget
      000465 8A 82            [24]  994 	mov	dpl,r2
      000467 8B 83            [24]  995 	mov	dph,r3
      000469 8C F0            [24]  996 	mov	b,r4
      00046B 12r00r00         [24]  997 	lcall	__gptrput
                                    998 ;	src/aes.c:261: (*state)[1][1] = (*state)[2][1];
      00046E 90r00r00         [24]  999 	mov	dptr,#_state
      000471 E0               [24] 1000 	movx	a,@dptr
      000472 FD               [12] 1001 	mov	r5,a
      000473 A3               [24] 1002 	inc	dptr
      000474 E0               [24] 1003 	movx	a,@dptr
      000475 FE               [12] 1004 	mov	r6,a
      000476 A3               [24] 1005 	inc	dptr
      000477 E0               [24] 1006 	movx	a,@dptr
      000478 FF               [12] 1007 	mov	r7,a
      000479 74 05            [12] 1008 	mov	a,#0x05
      00047B 2D               [12] 1009 	add	a,r5
      00047C FA               [12] 1010 	mov	r2,a
      00047D E4               [12] 1011 	clr	a
      00047E 3E               [12] 1012 	addc	a,r6
      00047F FB               [12] 1013 	mov	r3,a
      000480 8F 04            [24] 1014 	mov	ar4,r7
      000482 74 09            [12] 1015 	mov	a,#0x09
      000484 2D               [12] 1016 	add	a,r5
      000485 FD               [12] 1017 	mov	r5,a
      000486 E4               [12] 1018 	clr	a
      000487 3E               [12] 1019 	addc	a,r6
      000488 FE               [12] 1020 	mov	r6,a
      000489 8D 82            [24] 1021 	mov	dpl,r5
      00048B 8E 83            [24] 1022 	mov	dph,r6
      00048D 8F F0            [24] 1023 	mov	b,r7
      00048F 12r00r00         [24] 1024 	lcall	__gptrget
      000492 8A 82            [24] 1025 	mov	dpl,r2
      000494 8B 83            [24] 1026 	mov	dph,r3
      000496 8C F0            [24] 1027 	mov	b,r4
      000498 12r00r00         [24] 1028 	lcall	__gptrput
                                   1029 ;	src/aes.c:262: (*state)[2][1] = (*state)[3][1];
      00049B 90r00r00         [24] 1030 	mov	dptr,#_state
      00049E E0               [24] 1031 	movx	a,@dptr
      00049F FD               [12] 1032 	mov	r5,a
      0004A0 A3               [24] 1033 	inc	dptr
      0004A1 E0               [24] 1034 	movx	a,@dptr
      0004A2 FE               [12] 1035 	mov	r6,a
      0004A3 A3               [24] 1036 	inc	dptr
      0004A4 E0               [24] 1037 	movx	a,@dptr
      0004A5 FF               [12] 1038 	mov	r7,a
      0004A6 74 09            [12] 1039 	mov	a,#0x09
      0004A8 2D               [12] 1040 	add	a,r5
      0004A9 FA               [12] 1041 	mov	r2,a
      0004AA E4               [12] 1042 	clr	a
      0004AB 3E               [12] 1043 	addc	a,r6
      0004AC FB               [12] 1044 	mov	r3,a
      0004AD 8F 04            [24] 1045 	mov	ar4,r7
      0004AF 74 0D            [12] 1046 	mov	a,#0x0d
      0004B1 2D               [12] 1047 	add	a,r5
      0004B2 FD               [12] 1048 	mov	r5,a
      0004B3 E4               [12] 1049 	clr	a
      0004B4 3E               [12] 1050 	addc	a,r6
      0004B5 FE               [12] 1051 	mov	r6,a
      0004B6 8D 82            [24] 1052 	mov	dpl,r5
      0004B8 8E 83            [24] 1053 	mov	dph,r6
      0004BA 8F F0            [24] 1054 	mov	b,r7
      0004BC 12r00r00         [24] 1055 	lcall	__gptrget
      0004BF 8A 82            [24] 1056 	mov	dpl,r2
      0004C1 8B 83            [24] 1057 	mov	dph,r3
      0004C3 8C F0            [24] 1058 	mov	b,r4
      0004C5 12r00r00         [24] 1059 	lcall	__gptrput
                                   1060 ;	src/aes.c:263: (*state)[3][1] = temp;
      0004C8 90r00r00         [24] 1061 	mov	dptr,#_state
      0004CB E0               [24] 1062 	movx	a,@dptr
      0004CC FD               [12] 1063 	mov	r5,a
      0004CD A3               [24] 1064 	inc	dptr
      0004CE E0               [24] 1065 	movx	a,@dptr
      0004CF FE               [12] 1066 	mov	r6,a
      0004D0 A3               [24] 1067 	inc	dptr
      0004D1 E0               [24] 1068 	movx	a,@dptr
      0004D2 FF               [12] 1069 	mov	r7,a
      0004D3 74 0D            [12] 1070 	mov	a,#0x0d
      0004D5 2D               [12] 1071 	add	a,r5
      0004D6 FD               [12] 1072 	mov	r5,a
      0004D7 E4               [12] 1073 	clr	a
      0004D8 3E               [12] 1074 	addc	a,r6
      0004D9 FE               [12] 1075 	mov	r6,a
      0004DA 90r00rBD         [24] 1076 	mov	dptr,#_ShiftRows_temp_1_47
      0004DD E0               [24] 1077 	movx	a,@dptr
      0004DE 8D 82            [24] 1078 	mov	dpl,r5
      0004E0 8E 83            [24] 1079 	mov	dph,r6
      0004E2 8F F0            [24] 1080 	mov	b,r7
      0004E4 12r00r00         [24] 1081 	lcall	__gptrput
                                   1082 ;	src/aes.c:266: temp           = (*state)[0][2];
      0004E7 90r00r00         [24] 1083 	mov	dptr,#_state
      0004EA E0               [24] 1084 	movx	a,@dptr
      0004EB FD               [12] 1085 	mov	r5,a
      0004EC A3               [24] 1086 	inc	dptr
      0004ED E0               [24] 1087 	movx	a,@dptr
      0004EE FE               [12] 1088 	mov	r6,a
      0004EF A3               [24] 1089 	inc	dptr
      0004F0 E0               [24] 1090 	movx	a,@dptr
      0004F1 FF               [12] 1091 	mov	r7,a
      0004F2 74 02            [12] 1092 	mov	a,#0x02
      0004F4 2D               [12] 1093 	add	a,r5
      0004F5 FA               [12] 1094 	mov	r2,a
      0004F6 E4               [12] 1095 	clr	a
      0004F7 3E               [12] 1096 	addc	a,r6
      0004F8 FB               [12] 1097 	mov	r3,a
      0004F9 8F 04            [24] 1098 	mov	ar4,r7
      0004FB 8A 82            [24] 1099 	mov	dpl,r2
      0004FD 8B 83            [24] 1100 	mov	dph,r3
      0004FF 8C F0            [24] 1101 	mov	b,r4
      000501 12r00r00         [24] 1102 	lcall	__gptrget
      000504 90r00rBD         [24] 1103 	mov	dptr,#_ShiftRows_temp_1_47
      000507 F0               [24] 1104 	movx	@dptr,a
                                   1105 ;	src/aes.c:267: (*state)[0][2] = (*state)[2][2];
      000508 74 0A            [12] 1106 	mov	a,#0x0a
      00050A 2D               [12] 1107 	add	a,r5
      00050B FD               [12] 1108 	mov	r5,a
      00050C E4               [12] 1109 	clr	a
      00050D 3E               [12] 1110 	addc	a,r6
      00050E FE               [12] 1111 	mov	r6,a
      00050F 8D 82            [24] 1112 	mov	dpl,r5
      000511 8E 83            [24] 1113 	mov	dph,r6
      000513 8F F0            [24] 1114 	mov	b,r7
      000515 12r00r00         [24] 1115 	lcall	__gptrget
      000518 8A 82            [24] 1116 	mov	dpl,r2
      00051A 8B 83            [24] 1117 	mov	dph,r3
      00051C 8C F0            [24] 1118 	mov	b,r4
      00051E 12r00r00         [24] 1119 	lcall	__gptrput
                                   1120 ;	src/aes.c:268: (*state)[2][2] = temp;
      000521 90r00r00         [24] 1121 	mov	dptr,#_state
      000524 E0               [24] 1122 	movx	a,@dptr
      000525 FD               [12] 1123 	mov	r5,a
      000526 A3               [24] 1124 	inc	dptr
      000527 E0               [24] 1125 	movx	a,@dptr
      000528 FE               [12] 1126 	mov	r6,a
      000529 A3               [24] 1127 	inc	dptr
      00052A E0               [24] 1128 	movx	a,@dptr
      00052B FF               [12] 1129 	mov	r7,a
      00052C 74 0A            [12] 1130 	mov	a,#0x0a
      00052E 2D               [12] 1131 	add	a,r5
      00052F FD               [12] 1132 	mov	r5,a
      000530 E4               [12] 1133 	clr	a
      000531 3E               [12] 1134 	addc	a,r6
      000532 FE               [12] 1135 	mov	r6,a
      000533 90r00rBD         [24] 1136 	mov	dptr,#_ShiftRows_temp_1_47
      000536 E0               [24] 1137 	movx	a,@dptr
      000537 8D 82            [24] 1138 	mov	dpl,r5
      000539 8E 83            [24] 1139 	mov	dph,r6
      00053B 8F F0            [24] 1140 	mov	b,r7
      00053D 12r00r00         [24] 1141 	lcall	__gptrput
                                   1142 ;	src/aes.c:270: temp       = (*state)[1][2];
      000540 90r00r00         [24] 1143 	mov	dptr,#_state
      000543 E0               [24] 1144 	movx	a,@dptr
      000544 FD               [12] 1145 	mov	r5,a
      000545 A3               [24] 1146 	inc	dptr
      000546 E0               [24] 1147 	movx	a,@dptr
      000547 FE               [12] 1148 	mov	r6,a
      000548 A3               [24] 1149 	inc	dptr
      000549 E0               [24] 1150 	movx	a,@dptr
      00054A FF               [12] 1151 	mov	r7,a
      00054B 74 06            [12] 1152 	mov	a,#0x06
      00054D 2D               [12] 1153 	add	a,r5
      00054E FA               [12] 1154 	mov	r2,a
      00054F E4               [12] 1155 	clr	a
      000550 3E               [12] 1156 	addc	a,r6
      000551 FB               [12] 1157 	mov	r3,a
      000552 8F 04            [24] 1158 	mov	ar4,r7
      000554 8A 82            [24] 1159 	mov	dpl,r2
      000556 8B 83            [24] 1160 	mov	dph,r3
      000558 8C F0            [24] 1161 	mov	b,r4
      00055A 12r00r00         [24] 1162 	lcall	__gptrget
      00055D 90r00rBD         [24] 1163 	mov	dptr,#_ShiftRows_temp_1_47
      000560 F0               [24] 1164 	movx	@dptr,a
                                   1165 ;	src/aes.c:271: (*state)[1][2] = (*state)[3][2];
      000561 74 0E            [12] 1166 	mov	a,#0x0e
      000563 2D               [12] 1167 	add	a,r5
      000564 FD               [12] 1168 	mov	r5,a
      000565 E4               [12] 1169 	clr	a
      000566 3E               [12] 1170 	addc	a,r6
      000567 FE               [12] 1171 	mov	r6,a
      000568 8D 82            [24] 1172 	mov	dpl,r5
      00056A 8E 83            [24] 1173 	mov	dph,r6
      00056C 8F F0            [24] 1174 	mov	b,r7
      00056E 12r00r00         [24] 1175 	lcall	__gptrget
      000571 8A 82            [24] 1176 	mov	dpl,r2
      000573 8B 83            [24] 1177 	mov	dph,r3
      000575 8C F0            [24] 1178 	mov	b,r4
      000577 12r00r00         [24] 1179 	lcall	__gptrput
                                   1180 ;	src/aes.c:272: (*state)[3][2] = temp;
      00057A 90r00r00         [24] 1181 	mov	dptr,#_state
      00057D E0               [24] 1182 	movx	a,@dptr
      00057E FD               [12] 1183 	mov	r5,a
      00057F A3               [24] 1184 	inc	dptr
      000580 E0               [24] 1185 	movx	a,@dptr
      000581 FE               [12] 1186 	mov	r6,a
      000582 A3               [24] 1187 	inc	dptr
      000583 E0               [24] 1188 	movx	a,@dptr
      000584 FF               [12] 1189 	mov	r7,a
      000585 74 0E            [12] 1190 	mov	a,#0x0e
      000587 2D               [12] 1191 	add	a,r5
      000588 FD               [12] 1192 	mov	r5,a
      000589 E4               [12] 1193 	clr	a
      00058A 3E               [12] 1194 	addc	a,r6
      00058B FE               [12] 1195 	mov	r6,a
      00058C 90r00rBD         [24] 1196 	mov	dptr,#_ShiftRows_temp_1_47
      00058F E0               [24] 1197 	movx	a,@dptr
      000590 8D 82            [24] 1198 	mov	dpl,r5
      000592 8E 83            [24] 1199 	mov	dph,r6
      000594 8F F0            [24] 1200 	mov	b,r7
      000596 12r00r00         [24] 1201 	lcall	__gptrput
                                   1202 ;	src/aes.c:275: temp       = (*state)[0][3];
      000599 90r00r00         [24] 1203 	mov	dptr,#_state
      00059C E0               [24] 1204 	movx	a,@dptr
      00059D FD               [12] 1205 	mov	r5,a
      00059E A3               [24] 1206 	inc	dptr
      00059F E0               [24] 1207 	movx	a,@dptr
      0005A0 FE               [12] 1208 	mov	r6,a
      0005A1 A3               [24] 1209 	inc	dptr
      0005A2 E0               [24] 1210 	movx	a,@dptr
      0005A3 FF               [12] 1211 	mov	r7,a
      0005A4 74 03            [12] 1212 	mov	a,#0x03
      0005A6 2D               [12] 1213 	add	a,r5
      0005A7 FA               [12] 1214 	mov	r2,a
      0005A8 E4               [12] 1215 	clr	a
      0005A9 3E               [12] 1216 	addc	a,r6
      0005AA FB               [12] 1217 	mov	r3,a
      0005AB 8F 04            [24] 1218 	mov	ar4,r7
      0005AD 8A 82            [24] 1219 	mov	dpl,r2
      0005AF 8B 83            [24] 1220 	mov	dph,r3
      0005B1 8C F0            [24] 1221 	mov	b,r4
      0005B3 12r00r00         [24] 1222 	lcall	__gptrget
      0005B6 90r00rBD         [24] 1223 	mov	dptr,#_ShiftRows_temp_1_47
      0005B9 F0               [24] 1224 	movx	@dptr,a
                                   1225 ;	src/aes.c:276: (*state)[0][3] = (*state)[3][3];
      0005BA 74 0F            [12] 1226 	mov	a,#0x0f
      0005BC 2D               [12] 1227 	add	a,r5
      0005BD FD               [12] 1228 	mov	r5,a
      0005BE E4               [12] 1229 	clr	a
      0005BF 3E               [12] 1230 	addc	a,r6
      0005C0 FE               [12] 1231 	mov	r6,a
      0005C1 8D 82            [24] 1232 	mov	dpl,r5
      0005C3 8E 83            [24] 1233 	mov	dph,r6
      0005C5 8F F0            [24] 1234 	mov	b,r7
      0005C7 12r00r00         [24] 1235 	lcall	__gptrget
      0005CA 8A 82            [24] 1236 	mov	dpl,r2
      0005CC 8B 83            [24] 1237 	mov	dph,r3
      0005CE 8C F0            [24] 1238 	mov	b,r4
      0005D0 12r00r00         [24] 1239 	lcall	__gptrput
                                   1240 ;	src/aes.c:277: (*state)[3][3] = (*state)[2][3];
      0005D3 90r00r00         [24] 1241 	mov	dptr,#_state
      0005D6 E0               [24] 1242 	movx	a,@dptr
      0005D7 FD               [12] 1243 	mov	r5,a
      0005D8 A3               [24] 1244 	inc	dptr
      0005D9 E0               [24] 1245 	movx	a,@dptr
      0005DA FE               [12] 1246 	mov	r6,a
      0005DB A3               [24] 1247 	inc	dptr
      0005DC E0               [24] 1248 	movx	a,@dptr
      0005DD FF               [12] 1249 	mov	r7,a
      0005DE 74 0F            [12] 1250 	mov	a,#0x0f
      0005E0 2D               [12] 1251 	add	a,r5
      0005E1 FA               [12] 1252 	mov	r2,a
      0005E2 E4               [12] 1253 	clr	a
      0005E3 3E               [12] 1254 	addc	a,r6
      0005E4 FB               [12] 1255 	mov	r3,a
      0005E5 8F 04            [24] 1256 	mov	ar4,r7
      0005E7 74 0B            [12] 1257 	mov	a,#0x0b
      0005E9 2D               [12] 1258 	add	a,r5
      0005EA FD               [12] 1259 	mov	r5,a
      0005EB E4               [12] 1260 	clr	a
      0005EC 3E               [12] 1261 	addc	a,r6
      0005ED FE               [12] 1262 	mov	r6,a
      0005EE 8D 82            [24] 1263 	mov	dpl,r5
      0005F0 8E 83            [24] 1264 	mov	dph,r6
      0005F2 8F F0            [24] 1265 	mov	b,r7
      0005F4 12r00r00         [24] 1266 	lcall	__gptrget
      0005F7 8A 82            [24] 1267 	mov	dpl,r2
      0005F9 8B 83            [24] 1268 	mov	dph,r3
      0005FB 8C F0            [24] 1269 	mov	b,r4
      0005FD 12r00r00         [24] 1270 	lcall	__gptrput
                                   1271 ;	src/aes.c:278: (*state)[2][3] = (*state)[1][3];
      000600 90r00r00         [24] 1272 	mov	dptr,#_state
      000603 E0               [24] 1273 	movx	a,@dptr
      000604 FD               [12] 1274 	mov	r5,a
      000605 A3               [24] 1275 	inc	dptr
      000606 E0               [24] 1276 	movx	a,@dptr
      000607 FE               [12] 1277 	mov	r6,a
      000608 A3               [24] 1278 	inc	dptr
      000609 E0               [24] 1279 	movx	a,@dptr
      00060A FF               [12] 1280 	mov	r7,a
      00060B 74 0B            [12] 1281 	mov	a,#0x0b
      00060D 2D               [12] 1282 	add	a,r5
      00060E FA               [12] 1283 	mov	r2,a
      00060F E4               [12] 1284 	clr	a
      000610 3E               [12] 1285 	addc	a,r6
      000611 FB               [12] 1286 	mov	r3,a
      000612 8F 04            [24] 1287 	mov	ar4,r7
      000614 74 07            [12] 1288 	mov	a,#0x07
      000616 2D               [12] 1289 	add	a,r5
      000617 FD               [12] 1290 	mov	r5,a
      000618 E4               [12] 1291 	clr	a
      000619 3E               [12] 1292 	addc	a,r6
      00061A FE               [12] 1293 	mov	r6,a
      00061B 8D 82            [24] 1294 	mov	dpl,r5
      00061D 8E 83            [24] 1295 	mov	dph,r6
      00061F 8F F0            [24] 1296 	mov	b,r7
      000621 12r00r00         [24] 1297 	lcall	__gptrget
      000624 8A 82            [24] 1298 	mov	dpl,r2
      000626 8B 83            [24] 1299 	mov	dph,r3
      000628 8C F0            [24] 1300 	mov	b,r4
      00062A 12r00r00         [24] 1301 	lcall	__gptrput
                                   1302 ;	src/aes.c:279: (*state)[1][3] = temp;
      00062D 90r00r00         [24] 1303 	mov	dptr,#_state
      000630 E0               [24] 1304 	movx	a,@dptr
      000631 FD               [12] 1305 	mov	r5,a
      000632 A3               [24] 1306 	inc	dptr
      000633 E0               [24] 1307 	movx	a,@dptr
      000634 FE               [12] 1308 	mov	r6,a
      000635 A3               [24] 1309 	inc	dptr
      000636 E0               [24] 1310 	movx	a,@dptr
      000637 FF               [12] 1311 	mov	r7,a
      000638 74 07            [12] 1312 	mov	a,#0x07
      00063A 2D               [12] 1313 	add	a,r5
      00063B FD               [12] 1314 	mov	r5,a
      00063C E4               [12] 1315 	clr	a
      00063D 3E               [12] 1316 	addc	a,r6
      00063E FE               [12] 1317 	mov	r6,a
      00063F 90r00rBD         [24] 1318 	mov	dptr,#_ShiftRows_temp_1_47
      000642 E0               [24] 1319 	movx	a,@dptr
      000643 8D 82            [24] 1320 	mov	dpl,r5
      000645 8E 83            [24] 1321 	mov	dph,r6
      000647 8F F0            [24] 1322 	mov	b,r7
      000649 02r00r00         [24] 1323 	ljmp	__gptrput
                                   1324 ;------------------------------------------------------------
                                   1325 ;Allocation info for local variables in function 'xtime'
                                   1326 ;------------------------------------------------------------
                                   1327 ;x                         Allocated with name '_xtime_x_1_48'
                                   1328 ;------------------------------------------------------------
                                   1329 ;	src/aes.c:282: static uint8_t xtime(uint8_t x)
                                   1330 ;	-----------------------------------------
                                   1331 ;	 function xtime
                                   1332 ;	-----------------------------------------
      00064C                       1333 _xtime:
      00064C E5 82            [12] 1334 	mov	a,dpl
      00064E 90r00rBE         [24] 1335 	mov	dptr,#_xtime_x_1_48
      000651 F0               [24] 1336 	movx	@dptr,a
                                   1337 ;	src/aes.c:284: return ((x<<1) ^ (((x>>7) & 1) * 0x1b));
      000652 E0               [24] 1338 	movx	a,@dptr
      000653 FF               [12] 1339 	mov	r7,a
      000654 25 E0            [12] 1340 	add	a,acc
      000656 FE               [12] 1341 	mov	r6,a
      000657 EF               [12] 1342 	mov	a,r7
      000658 23               [12] 1343 	rl	a
      000659 54 01            [12] 1344 	anl	a,#0x01
      00065B 75 F0 1B         [24] 1345 	mov	b,#0x1b
      00065E A4               [48] 1346 	mul	ab
      00065F FF               [12] 1347 	mov	r7,a
      000660 EE               [12] 1348 	mov	a,r6
      000661 62 07            [12] 1349 	xrl	ar7,a
      000663 8F 82            [24] 1350 	mov	dpl,r7
      000665 22               [24] 1351 	ret
                                   1352 ;------------------------------------------------------------
                                   1353 ;Allocation info for local variables in function 'MixColumns'
                                   1354 ;------------------------------------------------------------
                                   1355 ;sloc0                     Allocated with name '_MixColumns_sloc0_1_0'
                                   1356 ;sloc1                     Allocated with name '_MixColumns_sloc1_1_0'
                                   1357 ;sloc2                     Allocated with name '_MixColumns_sloc2_1_0'
                                   1358 ;i                         Allocated with name '_MixColumns_i_1_51'
                                   1359 ;Tmp                       Allocated with name '_MixColumns_Tmp_1_51'
                                   1360 ;Tm                        Allocated with name '_MixColumns_Tm_1_51'
                                   1361 ;t                         Allocated with name '_MixColumns_t_1_51'
                                   1362 ;------------------------------------------------------------
                                   1363 ;	src/aes.c:288: static void MixColumns(void)
                                   1364 ;	-----------------------------------------
                                   1365 ;	 function MixColumns
                                   1366 ;	-----------------------------------------
      000666                       1367 _MixColumns:
                                   1368 ;	src/aes.c:292: for(i = 0; i < 4; ++i)
      000666 7F 00            [12] 1369 	mov	r7,#0x00
      000668                       1370 00102$:
                                   1371 ;	src/aes.c:294: t   = (*state)[i][0];
      000668 90r00r00         [24] 1372 	mov	dptr,#_state
      00066B E0               [24] 1373 	movx	a,@dptr
      00066C FC               [12] 1374 	mov	r4,a
      00066D A3               [24] 1375 	inc	dptr
      00066E E0               [24] 1376 	movx	a,@dptr
      00066F FD               [12] 1377 	mov	r5,a
      000670 A3               [24] 1378 	inc	dptr
      000671 E0               [24] 1379 	movx	a,@dptr
      000672 FE               [12] 1380 	mov	r6,a
      000673 EF               [12] 1381 	mov	a,r7
      000674 2F               [12] 1382 	add	a,r7
      000675 25 E0            [12] 1383 	add	a,acc
      000677 FB               [12] 1384 	mov	r3,a
      000678 2C               [12] 1385 	add	a,r4
      000679 FC               [12] 1386 	mov	r4,a
      00067A E4               [12] 1387 	clr	a
      00067B 3D               [12] 1388 	addc	a,r5
      00067C FD               [12] 1389 	mov	r5,a
      00067D 8C 82            [24] 1390 	mov	dpl,r4
      00067F 8D 83            [24] 1391 	mov	dph,r5
      000681 8E F0            [24] 1392 	mov	b,r6
      000683 12r00r00         [24] 1393 	lcall	__gptrget
      000686 F5*0F            [12] 1394 	mov	_MixColumns_sloc0_1_0,a
      000688 90r00rC0         [24] 1395 	mov	dptr,#_MixColumns_t_1_51
      00068B F0               [24] 1396 	movx	@dptr,a
                                   1397 ;	src/aes.c:295: Tmp = (*state)[i][0] ^ (*state)[i][1] ^ (*state)[i][2] ^ (*state)[i][3] ;
      00068C 74 01            [12] 1398 	mov	a,#0x01
      00068E 2C               [12] 1399 	add	a,r4
      00068F F8               [12] 1400 	mov	r0,a
      000690 E4               [12] 1401 	clr	a
      000691 3D               [12] 1402 	addc	a,r5
      000692 F9               [12] 1403 	mov	r1,a
      000693 8E 02            [24] 1404 	mov	ar2,r6
      000695 88 82            [24] 1405 	mov	dpl,r0
      000697 89 83            [24] 1406 	mov	dph,r1
      000699 8A F0            [24] 1407 	mov	b,r2
      00069B 12r00r00         [24] 1408 	lcall	__gptrget
      00069E 62*0F            [12] 1409 	xrl	_MixColumns_sloc0_1_0,a
      0006A0 74 02            [12] 1410 	mov	a,#0x02
      0006A2 2C               [12] 1411 	add	a,r4
      0006A3 F8               [12] 1412 	mov	r0,a
      0006A4 E4               [12] 1413 	clr	a
      0006A5 3D               [12] 1414 	addc	a,r5
      0006A6 F9               [12] 1415 	mov	r1,a
      0006A7 8E 02            [24] 1416 	mov	ar2,r6
      0006A9 88 82            [24] 1417 	mov	dpl,r0
      0006AB 89 83            [24] 1418 	mov	dph,r1
      0006AD 8A F0            [24] 1419 	mov	b,r2
      0006AF 12r00r00         [24] 1420 	lcall	__gptrget
      0006B2 F8               [12] 1421 	mov	r0,a
      0006B3 E5*0F            [12] 1422 	mov	a,_MixColumns_sloc0_1_0
      0006B5 62 00            [12] 1423 	xrl	ar0,a
      0006B7 74 03            [12] 1424 	mov	a,#0x03
      0006B9 2C               [12] 1425 	add	a,r4
      0006BA FC               [12] 1426 	mov	r4,a
      0006BB E4               [12] 1427 	clr	a
      0006BC 3D               [12] 1428 	addc	a,r5
      0006BD FD               [12] 1429 	mov	r5,a
      0006BE 8C 82            [24] 1430 	mov	dpl,r4
      0006C0 8D 83            [24] 1431 	mov	dph,r5
      0006C2 8E F0            [24] 1432 	mov	b,r6
      0006C4 12r00r00         [24] 1433 	lcall	__gptrget
      0006C7 90r00rBF         [24] 1434 	mov	dptr,#_MixColumns_Tmp_1_51
      0006CA 68               [12] 1435 	xrl	a,r0
      0006CB F0               [24] 1436 	movx	@dptr,a
                                   1437 ;	src/aes.c:296: Tm  = (*state)[i][0] ^ (*state)[i][1] ; Tm = xtime(Tm);  (*state)[i][0] ^= Tm ^ Tmp ;
      0006CC 85*0F 82         [24] 1438 	mov	dpl,_MixColumns_sloc0_1_0
      0006CF C0 07            [24] 1439 	push	ar7
      0006D1 C0 03            [24] 1440 	push	ar3
      0006D3 12r06r4C         [24] 1441 	lcall	_xtime
      0006D6 AE 82            [24] 1442 	mov	r6,dpl
      0006D8 D0 03            [24] 1443 	pop	ar3
      0006DA 90r00r00         [24] 1444 	mov	dptr,#_state
      0006DD E0               [24] 1445 	movx	a,@dptr
      0006DE FA               [12] 1446 	mov	r2,a
      0006DF A3               [24] 1447 	inc	dptr
      0006E0 E0               [24] 1448 	movx	a,@dptr
      0006E1 FC               [12] 1449 	mov	r4,a
      0006E2 A3               [24] 1450 	inc	dptr
      0006E3 E0               [24] 1451 	movx	a,@dptr
      0006E4 FD               [12] 1452 	mov	r5,a
      0006E5 EB               [12] 1453 	mov	a,r3
      0006E6 2A               [12] 1454 	add	a,r2
      0006E7 FA               [12] 1455 	mov	r2,a
      0006E8 E4               [12] 1456 	clr	a
      0006E9 3C               [12] 1457 	addc	a,r4
      0006EA FC               [12] 1458 	mov	r4,a
      0006EB 90r00rBF         [24] 1459 	mov	dptr,#_MixColumns_Tmp_1_51
      0006EE E0               [24] 1460 	movx	a,@dptr
      0006EF F9               [12] 1461 	mov	r1,a
      0006F0 62 06            [12] 1462 	xrl	ar6,a
      0006F2 8A 82            [24] 1463 	mov	dpl,r2
      0006F4 8C 83            [24] 1464 	mov	dph,r4
      0006F6 8D F0            [24] 1465 	mov	b,r5
      0006F8 12r00r00         [24] 1466 	lcall	__gptrget
      0006FB 62 06            [12] 1467 	xrl	ar6,a
      0006FD 8A 82            [24] 1468 	mov	dpl,r2
      0006FF 8C 83            [24] 1469 	mov	dph,r4
      000701 8D F0            [24] 1470 	mov	b,r5
      000703 EE               [12] 1471 	mov	a,r6
      000704 12r00r00         [24] 1472 	lcall	__gptrput
                                   1473 ;	src/aes.c:297: Tm  = (*state)[i][1] ^ (*state)[i][2] ; Tm = xtime(Tm);  (*state)[i][1] ^= Tm ^ Tmp ;
      000707 90r00r00         [24] 1474 	mov	dptr,#_state
      00070A E0               [24] 1475 	movx	a,@dptr
      00070B FC               [12] 1476 	mov	r4,a
      00070C A3               [24] 1477 	inc	dptr
      00070D E0               [24] 1478 	movx	a,@dptr
      00070E FD               [12] 1479 	mov	r5,a
      00070F A3               [24] 1480 	inc	dptr
      000710 E0               [24] 1481 	movx	a,@dptr
      000711 FE               [12] 1482 	mov	r6,a
      000712 EB               [12] 1483 	mov	a,r3
      000713 2C               [12] 1484 	add	a,r4
      000714 F5*10            [12] 1485 	mov	_MixColumns_sloc1_1_0,a
      000716 E4               [12] 1486 	clr	a
      000717 3D               [12] 1487 	addc	a,r5
      000718 F5*11            [12] 1488 	mov	(_MixColumns_sloc1_1_0 + 1),a
      00071A 8E*12            [24] 1489 	mov	(_MixColumns_sloc1_1_0 + 2),r6
      00071C 74 01            [12] 1490 	mov	a,#0x01
      00071E 25*10            [12] 1491 	add	a,_MixColumns_sloc1_1_0
      000720 F5*13            [12] 1492 	mov	_MixColumns_sloc2_1_0,a
      000722 E4               [12] 1493 	clr	a
      000723 35*11            [12] 1494 	addc	a,(_MixColumns_sloc1_1_0 + 1)
      000725 F5*14            [12] 1495 	mov	(_MixColumns_sloc2_1_0 + 1),a
      000727 85*12*15         [24] 1496 	mov	(_MixColumns_sloc2_1_0 + 2),(_MixColumns_sloc1_1_0 + 2)
      00072A 74 02            [12] 1497 	mov	a,#0x02
      00072C 25*10            [12] 1498 	add	a,_MixColumns_sloc1_1_0
      00072E FC               [12] 1499 	mov	r4,a
      00072F E4               [12] 1500 	clr	a
      000730 35*11            [12] 1501 	addc	a,(_MixColumns_sloc1_1_0 + 1)
      000732 FD               [12] 1502 	mov	r5,a
      000733 AE*12            [24] 1503 	mov	r6,(_MixColumns_sloc1_1_0 + 2)
      000735 8C 82            [24] 1504 	mov	dpl,r4
      000737 8D 83            [24] 1505 	mov	dph,r5
      000739 8E F0            [24] 1506 	mov	b,r6
      00073B 12r00r00         [24] 1507 	lcall	__gptrget
      00073E FC               [12] 1508 	mov	r4,a
      00073F 85*13 82         [24] 1509 	mov	dpl,_MixColumns_sloc2_1_0
      000742 85*14 83         [24] 1510 	mov	dph,(_MixColumns_sloc2_1_0 + 1)
      000745 85*15 F0         [24] 1511 	mov	b,(_MixColumns_sloc2_1_0 + 2)
      000748 12r00r00         [24] 1512 	lcall	__gptrget
      00074B 62 04            [12] 1513 	xrl	ar4,a
      00074D 8C 82            [24] 1514 	mov	dpl,r4
      00074F C0 03            [24] 1515 	push	ar3
      000751 C0 01            [24] 1516 	push	ar1
      000753 12r06r4C         [24] 1517 	lcall	_xtime
      000756 AE 82            [24] 1518 	mov	r6,dpl
      000758 D0 01            [24] 1519 	pop	ar1
      00075A D0 03            [24] 1520 	pop	ar3
      00075C D0 07            [24] 1521 	pop	ar7
      00075E 90r00r00         [24] 1522 	mov	dptr,#_state
      000761 E0               [24] 1523 	movx	a,@dptr
      000762 FA               [12] 1524 	mov	r2,a
      000763 A3               [24] 1525 	inc	dptr
      000764 E0               [24] 1526 	movx	a,@dptr
      000765 FC               [12] 1527 	mov	r4,a
      000766 A3               [24] 1528 	inc	dptr
      000767 E0               [24] 1529 	movx	a,@dptr
      000768 FD               [12] 1530 	mov	r5,a
      000769 EB               [12] 1531 	mov	a,r3
      00076A 2A               [12] 1532 	add	a,r2
      00076B FA               [12] 1533 	mov	r2,a
      00076C E4               [12] 1534 	clr	a
      00076D 3C               [12] 1535 	addc	a,r4
      00076E FC               [12] 1536 	mov	r4,a
      00076F 0A               [12] 1537 	inc	r2
      000770 BA 00 01         [24] 1538 	cjne	r2,#0x00,00110$
      000773 0C               [12] 1539 	inc	r4
      000774                       1540 00110$:
      000774 E9               [12] 1541 	mov	a,r1
      000775 62 06            [12] 1542 	xrl	ar6,a
      000777 8A 82            [24] 1543 	mov	dpl,r2
      000779 8C 83            [24] 1544 	mov	dph,r4
      00077B 8D F0            [24] 1545 	mov	b,r5
      00077D 12r00r00         [24] 1546 	lcall	__gptrget
      000780 62 06            [12] 1547 	xrl	ar6,a
      000782 8A 82            [24] 1548 	mov	dpl,r2
      000784 8C 83            [24] 1549 	mov	dph,r4
      000786 8D F0            [24] 1550 	mov	b,r5
      000788 EE               [12] 1551 	mov	a,r6
      000789 12r00r00         [24] 1552 	lcall	__gptrput
                                   1553 ;	src/aes.c:298: Tm  = (*state)[i][2] ^ (*state)[i][3] ; Tm = xtime(Tm);  (*state)[i][2] ^= Tm ^ Tmp ;
      00078C 90r00r00         [24] 1554 	mov	dptr,#_state
      00078F E0               [24] 1555 	movx	a,@dptr
      000790 FC               [12] 1556 	mov	r4,a
      000791 A3               [24] 1557 	inc	dptr
      000792 E0               [24] 1558 	movx	a,@dptr
      000793 FD               [12] 1559 	mov	r5,a
      000794 A3               [24] 1560 	inc	dptr
      000795 E0               [24] 1561 	movx	a,@dptr
      000796 FE               [12] 1562 	mov	r6,a
      000797 EB               [12] 1563 	mov	a,r3
      000798 2C               [12] 1564 	add	a,r4
      000799 F5*13            [12] 1565 	mov	_MixColumns_sloc2_1_0,a
      00079B E4               [12] 1566 	clr	a
      00079C 3D               [12] 1567 	addc	a,r5
      00079D F5*14            [12] 1568 	mov	(_MixColumns_sloc2_1_0 + 1),a
      00079F 8E*15            [24] 1569 	mov	(_MixColumns_sloc2_1_0 + 2),r6
      0007A1 74 02            [12] 1570 	mov	a,#0x02
      0007A3 25*13            [12] 1571 	add	a,_MixColumns_sloc2_1_0
      0007A5 F5*10            [12] 1572 	mov	_MixColumns_sloc1_1_0,a
      0007A7 E4               [12] 1573 	clr	a
      0007A8 35*14            [12] 1574 	addc	a,(_MixColumns_sloc2_1_0 + 1)
      0007AA F5*11            [12] 1575 	mov	(_MixColumns_sloc1_1_0 + 1),a
      0007AC 85*15*12         [24] 1576 	mov	(_MixColumns_sloc1_1_0 + 2),(_MixColumns_sloc2_1_0 + 2)
      0007AF 74 03            [12] 1577 	mov	a,#0x03
      0007B1 25*13            [12] 1578 	add	a,_MixColumns_sloc2_1_0
      0007B3 FC               [12] 1579 	mov	r4,a
      0007B4 E4               [12] 1580 	clr	a
      0007B5 35*14            [12] 1581 	addc	a,(_MixColumns_sloc2_1_0 + 1)
      0007B7 FD               [12] 1582 	mov	r5,a
      0007B8 AE*15            [24] 1583 	mov	r6,(_MixColumns_sloc2_1_0 + 2)
      0007BA 8C 82            [24] 1584 	mov	dpl,r4
      0007BC 8D 83            [24] 1585 	mov	dph,r5
      0007BE 8E F0            [24] 1586 	mov	b,r6
      0007C0 12r00r00         [24] 1587 	lcall	__gptrget
      0007C3 FC               [12] 1588 	mov	r4,a
      0007C4 85*10 82         [24] 1589 	mov	dpl,_MixColumns_sloc1_1_0
      0007C7 85*11 83         [24] 1590 	mov	dph,(_MixColumns_sloc1_1_0 + 1)
      0007CA 85*12 F0         [24] 1591 	mov	b,(_MixColumns_sloc1_1_0 + 2)
      0007CD 12r00r00         [24] 1592 	lcall	__gptrget
      0007D0 62 04            [12] 1593 	xrl	ar4,a
      0007D2 8C 82            [24] 1594 	mov	dpl,r4
      0007D4 C0 07            [24] 1595 	push	ar7
      0007D6 C0 03            [24] 1596 	push	ar3
      0007D8 C0 01            [24] 1597 	push	ar1
      0007DA 12r06r4C         [24] 1598 	lcall	_xtime
      0007DD AE 82            [24] 1599 	mov	r6,dpl
      0007DF D0 01            [24] 1600 	pop	ar1
      0007E1 D0 03            [24] 1601 	pop	ar3
      0007E3 90r00r00         [24] 1602 	mov	dptr,#_state
      0007E6 E0               [24] 1603 	movx	a,@dptr
      0007E7 FA               [12] 1604 	mov	r2,a
      0007E8 A3               [24] 1605 	inc	dptr
      0007E9 E0               [24] 1606 	movx	a,@dptr
      0007EA FC               [12] 1607 	mov	r4,a
      0007EB A3               [24] 1608 	inc	dptr
      0007EC E0               [24] 1609 	movx	a,@dptr
      0007ED FD               [12] 1610 	mov	r5,a
      0007EE EB               [12] 1611 	mov	a,r3
      0007EF 2A               [12] 1612 	add	a,r2
      0007F0 FA               [12] 1613 	mov	r2,a
      0007F1 E4               [12] 1614 	clr	a
      0007F2 3C               [12] 1615 	addc	a,r4
      0007F3 FC               [12] 1616 	mov	r4,a
      0007F4 74 02            [12] 1617 	mov	a,#0x02
      0007F6 2A               [12] 1618 	add	a,r2
      0007F7 FA               [12] 1619 	mov	r2,a
      0007F8 E4               [12] 1620 	clr	a
      0007F9 3C               [12] 1621 	addc	a,r4
      0007FA FC               [12] 1622 	mov	r4,a
      0007FB E9               [12] 1623 	mov	a,r1
      0007FC 62 06            [12] 1624 	xrl	ar6,a
      0007FE 8A 82            [24] 1625 	mov	dpl,r2
      000800 8C 83            [24] 1626 	mov	dph,r4
      000802 8D F0            [24] 1627 	mov	b,r5
      000804 12r00r00         [24] 1628 	lcall	__gptrget
      000807 62 06            [12] 1629 	xrl	ar6,a
      000809 8A 82            [24] 1630 	mov	dpl,r2
      00080B 8C 83            [24] 1631 	mov	dph,r4
      00080D 8D F0            [24] 1632 	mov	b,r5
      00080F EE               [12] 1633 	mov	a,r6
      000810 12r00r00         [24] 1634 	lcall	__gptrput
                                   1635 ;	src/aes.c:299: Tm  = (*state)[i][3] ^ t ;        Tm = xtime(Tm);  (*state)[i][3] ^= Tm ^ Tmp ;
      000813 90r00r00         [24] 1636 	mov	dptr,#_state
      000816 E0               [24] 1637 	movx	a,@dptr
      000817 FC               [12] 1638 	mov	r4,a
      000818 A3               [24] 1639 	inc	dptr
      000819 E0               [24] 1640 	movx	a,@dptr
      00081A FD               [12] 1641 	mov	r5,a
      00081B A3               [24] 1642 	inc	dptr
      00081C E0               [24] 1643 	movx	a,@dptr
      00081D FE               [12] 1644 	mov	r6,a
      00081E EB               [12] 1645 	mov	a,r3
      00081F 2C               [12] 1646 	add	a,r4
      000820 FC               [12] 1647 	mov	r4,a
      000821 E4               [12] 1648 	clr	a
      000822 3D               [12] 1649 	addc	a,r5
      000823 FD               [12] 1650 	mov	r5,a
      000824 74 03            [12] 1651 	mov	a,#0x03
      000826 2C               [12] 1652 	add	a,r4
      000827 FC               [12] 1653 	mov	r4,a
      000828 E4               [12] 1654 	clr	a
      000829 3D               [12] 1655 	addc	a,r5
      00082A FD               [12] 1656 	mov	r5,a
      00082B 90r00rC0         [24] 1657 	mov	dptr,#_MixColumns_t_1_51
      00082E E0               [24] 1658 	movx	a,@dptr
      00082F FA               [12] 1659 	mov	r2,a
      000830 8C 82            [24] 1660 	mov	dpl,r4
      000832 8D 83            [24] 1661 	mov	dph,r5
      000834 8E F0            [24] 1662 	mov	b,r6
      000836 12r00r00         [24] 1663 	lcall	__gptrget
      000839 62 02            [12] 1664 	xrl	ar2,a
      00083B 8A 82            [24] 1665 	mov	dpl,r2
      00083D C0 03            [24] 1666 	push	ar3
      00083F C0 01            [24] 1667 	push	ar1
      000841 12r06r4C         [24] 1668 	lcall	_xtime
      000844 AE 82            [24] 1669 	mov	r6,dpl
      000846 D0 01            [24] 1670 	pop	ar1
      000848 D0 03            [24] 1671 	pop	ar3
      00084A D0 07            [24] 1672 	pop	ar7
      00084C 90r00r00         [24] 1673 	mov	dptr,#_state
      00084F E0               [24] 1674 	movx	a,@dptr
      000850 FA               [12] 1675 	mov	r2,a
      000851 A3               [24] 1676 	inc	dptr
      000852 E0               [24] 1677 	movx	a,@dptr
      000853 FC               [12] 1678 	mov	r4,a
      000854 A3               [24] 1679 	inc	dptr
      000855 E0               [24] 1680 	movx	a,@dptr
      000856 FD               [12] 1681 	mov	r5,a
      000857 EB               [12] 1682 	mov	a,r3
      000858 2A               [12] 1683 	add	a,r2
      000859 FA               [12] 1684 	mov	r2,a
      00085A E4               [12] 1685 	clr	a
      00085B 3C               [12] 1686 	addc	a,r4
      00085C FC               [12] 1687 	mov	r4,a
      00085D 74 03            [12] 1688 	mov	a,#0x03
      00085F 2A               [12] 1689 	add	a,r2
      000860 FA               [12] 1690 	mov	r2,a
      000861 E4               [12] 1691 	clr	a
      000862 3C               [12] 1692 	addc	a,r4
      000863 FC               [12] 1693 	mov	r4,a
      000864 EE               [12] 1694 	mov	a,r6
      000865 62 01            [12] 1695 	xrl	ar1,a
      000867 8A 82            [24] 1696 	mov	dpl,r2
      000869 8C 83            [24] 1697 	mov	dph,r4
      00086B 8D F0            [24] 1698 	mov	b,r5
      00086D 12r00r00         [24] 1699 	lcall	__gptrget
      000870 FE               [12] 1700 	mov	r6,a
      000871 62 01            [12] 1701 	xrl	ar1,a
      000873 8A 82            [24] 1702 	mov	dpl,r2
      000875 8C 83            [24] 1703 	mov	dph,r4
      000877 8D F0            [24] 1704 	mov	b,r5
      000879 E9               [12] 1705 	mov	a,r1
      00087A 12r00r00         [24] 1706 	lcall	__gptrput
                                   1707 ;	src/aes.c:292: for(i = 0; i < 4; ++i)
      00087D 0F               [12] 1708 	inc	r7
      00087E BF 04 00         [24] 1709 	cjne	r7,#0x04,00111$
      000881                       1710 00111$:
      000881 50 03            [24] 1711 	jnc	00112$
      000883 02r06r68         [24] 1712 	ljmp	00102$
      000886                       1713 00112$:
      000886 22               [24] 1714 	ret
                                   1715 ;------------------------------------------------------------
                                   1716 ;Allocation info for local variables in function 'InvMixColumns'
                                   1717 ;------------------------------------------------------------
                                   1718 ;sloc0                     Allocated with name '_InvMixColumns_sloc0_1_0'
                                   1719 ;sloc1                     Allocated with name '_InvMixColumns_sloc1_1_0'
                                   1720 ;sloc2                     Allocated with name '_InvMixColumns_sloc2_1_0'
                                   1721 ;i                         Allocated with name '_InvMixColumns_i_1_54'
                                   1722 ;a                         Allocated with name '_InvMixColumns_a_1_54'
                                   1723 ;b                         Allocated with name '_InvMixColumns_b_1_54'
                                   1724 ;c                         Allocated with name '_InvMixColumns_c_1_54'
                                   1725 ;d                         Allocated with name '_InvMixColumns_d_1_54'
                                   1726 ;------------------------------------------------------------
                                   1727 ;	src/aes.c:328: static void InvMixColumns(void)
                                   1728 ;	-----------------------------------------
                                   1729 ;	 function InvMixColumns
                                   1730 ;	-----------------------------------------
      000887                       1731 _InvMixColumns:
                                   1732 ;	src/aes.c:332: for(i=0;i<4;++i)
      000887 E4               [12] 1733 	clr	a
      000888 F5*17            [12] 1734 	mov	_InvMixColumns_sloc1_1_0,a
      00088A F5*18            [12] 1735 	mov	(_InvMixColumns_sloc1_1_0 + 1),a
      00088C                       1736 00102$:
                                   1737 ;	src/aes.c:334: a = (*state)[i][0];
      00088C 90r00r00         [24] 1738 	mov	dptr,#_state
      00088F E0               [24] 1739 	movx	a,@dptr
      000890 FB               [12] 1740 	mov	r3,a
      000891 A3               [24] 1741 	inc	dptr
      000892 E0               [24] 1742 	movx	a,@dptr
      000893 FC               [12] 1743 	mov	r4,a
      000894 A3               [24] 1744 	inc	dptr
      000895 E0               [24] 1745 	movx	a,@dptr
      000896 FD               [12] 1746 	mov	r5,a
      000897 A9*17            [24] 1747 	mov	r1,_InvMixColumns_sloc1_1_0
      000899 E5*18            [12] 1748 	mov	a,(_InvMixColumns_sloc1_1_0 + 1)
      00089B C9               [12] 1749 	xch	a,r1
      00089C 25 E0            [12] 1750 	add	a,acc
      00089E C9               [12] 1751 	xch	a,r1
      00089F 33               [12] 1752 	rlc	a
      0008A0 C9               [12] 1753 	xch	a,r1
      0008A1 25 E0            [12] 1754 	add	a,acc
      0008A3 C9               [12] 1755 	xch	a,r1
      0008A4 33               [12] 1756 	rlc	a
      0008A5 FA               [12] 1757 	mov	r2,a
      0008A6 E9               [12] 1758 	mov	a,r1
      0008A7 2B               [12] 1759 	add	a,r3
      0008A8 FB               [12] 1760 	mov	r3,a
      0008A9 EA               [12] 1761 	mov	a,r2
      0008AA 3C               [12] 1762 	addc	a,r4
      0008AB FC               [12] 1763 	mov	r4,a
      0008AC 8B 82            [24] 1764 	mov	dpl,r3
      0008AE 8C 83            [24] 1765 	mov	dph,r4
      0008B0 8D F0            [24] 1766 	mov	b,r5
      0008B2 12r00r00         [24] 1767 	lcall	__gptrget
      0008B5 F5*16            [12] 1768 	mov	_InvMixColumns_sloc0_1_0,a
      0008B7 90r00rC1         [24] 1769 	mov	dptr,#_InvMixColumns_a_1_54
      0008BA F0               [24] 1770 	movx	@dptr,a
                                   1771 ;	src/aes.c:335: b = (*state)[i][1];
      0008BB 74 01            [12] 1772 	mov	a,#0x01
      0008BD 2B               [12] 1773 	add	a,r3
      0008BE F8               [12] 1774 	mov	r0,a
      0008BF E4               [12] 1775 	clr	a
      0008C0 3C               [12] 1776 	addc	a,r4
      0008C1 FE               [12] 1777 	mov	r6,a
      0008C2 8D 07            [24] 1778 	mov	ar7,r5
      0008C4 88 82            [24] 1779 	mov	dpl,r0
      0008C6 8E 83            [24] 1780 	mov	dph,r6
      0008C8 8F F0            [24] 1781 	mov	b,r7
      0008CA 12r00r00         [24] 1782 	lcall	__gptrget
      0008CD 90r00rC2         [24] 1783 	mov	dptr,#_InvMixColumns_b_1_54
      0008D0 F0               [24] 1784 	movx	@dptr,a
                                   1785 ;	src/aes.c:336: c = (*state)[i][2];
      0008D1 74 02            [12] 1786 	mov	a,#0x02
      0008D3 2B               [12] 1787 	add	a,r3
      0008D4 F8               [12] 1788 	mov	r0,a
      0008D5 E4               [12] 1789 	clr	a
      0008D6 3C               [12] 1790 	addc	a,r4
      0008D7 FE               [12] 1791 	mov	r6,a
      0008D8 8D 07            [24] 1792 	mov	ar7,r5
      0008DA 88 82            [24] 1793 	mov	dpl,r0
      0008DC 8E 83            [24] 1794 	mov	dph,r6
      0008DE 8F F0            [24] 1795 	mov	b,r7
      0008E0 12r00r00         [24] 1796 	lcall	__gptrget
      0008E3 90r00rC3         [24] 1797 	mov	dptr,#_InvMixColumns_c_1_54
      0008E6 F0               [24] 1798 	movx	@dptr,a
                                   1799 ;	src/aes.c:337: d = (*state)[i][3];
      0008E7 74 03            [12] 1800 	mov	a,#0x03
      0008E9 2B               [12] 1801 	add	a,r3
      0008EA F8               [12] 1802 	mov	r0,a
      0008EB E4               [12] 1803 	clr	a
      0008EC 3C               [12] 1804 	addc	a,r4
      0008ED FE               [12] 1805 	mov	r6,a
      0008EE 8D 07            [24] 1806 	mov	ar7,r5
      0008F0 88 82            [24] 1807 	mov	dpl,r0
      0008F2 8E 83            [24] 1808 	mov	dph,r6
      0008F4 8F F0            [24] 1809 	mov	b,r7
      0008F6 12r00r00         [24] 1810 	lcall	__gptrget
      0008F9 90r00rC4         [24] 1811 	mov	dptr,#_InvMixColumns_d_1_54
      0008FC F0               [24] 1812 	movx	@dptr,a
                                   1813 ;	src/aes.c:339: (*state)[i][0] = Multiply(a, 0x0e) ^ Multiply(b, 0x0b) ^ Multiply(c, 0x0d) ^ Multiply(d, 0x09);
      0008FD 8B*19            [24] 1814 	mov	_InvMixColumns_sloc2_1_0,r3
      0008FF 8C*1A            [24] 1815 	mov	(_InvMixColumns_sloc2_1_0 + 1),r4
      000901 8D*1B            [24] 1816 	mov	(_InvMixColumns_sloc2_1_0 + 2),r5
      000903 90r00r00         [24] 1817 	mov	dptr,#_enc_dec_accel_galois_multiply_PARM_2
      000906 74 0E            [12] 1818 	mov	a,#0x0e
      000908 F0               [24] 1819 	movx	@dptr,a
      000909 85*16 82         [24] 1820 	mov	dpl,_InvMixColumns_sloc0_1_0
      00090C C0 02            [24] 1821 	push	ar2
      00090E C0 01            [24] 1822 	push	ar1
      000910 12r00r00         [24] 1823 	lcall	_enc_dec_accel_galois_multiply
      000913 AF 82            [24] 1824 	mov	r7,dpl
      000915 D0 01            [24] 1825 	pop	ar1
      000917 D0 02            [24] 1826 	pop	ar2
      000919 90r00rC2         [24] 1827 	mov	dptr,#_InvMixColumns_b_1_54
      00091C E0               [24] 1828 	movx	a,@dptr
      00091D FE               [12] 1829 	mov	r6,a
      00091E 90r00r00         [24] 1830 	mov	dptr,#_enc_dec_accel_galois_multiply_PARM_2
      000921 74 0B            [12] 1831 	mov	a,#0x0b
      000923 F0               [24] 1832 	movx	@dptr,a
      000924 8E 82            [24] 1833 	mov	dpl,r6
      000926 C0 07            [24] 1834 	push	ar7
      000928 C0 06            [24] 1835 	push	ar6
      00092A C0 02            [24] 1836 	push	ar2
      00092C C0 01            [24] 1837 	push	ar1
      00092E 12r00r00         [24] 1838 	lcall	_enc_dec_accel_galois_multiply
      000931 A8 82            [24] 1839 	mov	r0,dpl
      000933 D0 01            [24] 1840 	pop	ar1
      000935 D0 02            [24] 1841 	pop	ar2
      000937 D0 06            [24] 1842 	pop	ar6
      000939 D0 07            [24] 1843 	pop	ar7
      00093B E8               [12] 1844 	mov	a,r0
      00093C 6F               [12] 1845 	xrl	a,r7
      00093D F5*16            [12] 1846 	mov	_InvMixColumns_sloc0_1_0,a
      00093F 90r00rC3         [24] 1847 	mov	dptr,#_InvMixColumns_c_1_54
      000942 E0               [24] 1848 	movx	a,@dptr
      000943 F8               [12] 1849 	mov	r0,a
      000944 90r00r00         [24] 1850 	mov	dptr,#_enc_dec_accel_galois_multiply_PARM_2
      000947 74 0D            [12] 1851 	mov	a,#0x0d
      000949 F0               [24] 1852 	movx	@dptr,a
      00094A 88 82            [24] 1853 	mov	dpl,r0
      00094C C0 06            [24] 1854 	push	ar6
      00094E C0 02            [24] 1855 	push	ar2
      000950 C0 01            [24] 1856 	push	ar1
      000952 C0 00            [24] 1857 	push	ar0
      000954 12r00r00         [24] 1858 	lcall	_enc_dec_accel_galois_multiply
      000957 AF 82            [24] 1859 	mov	r7,dpl
      000959 D0 00            [24] 1860 	pop	ar0
      00095B D0 01            [24] 1861 	pop	ar1
      00095D D0 02            [24] 1862 	pop	ar2
      00095F D0 06            [24] 1863 	pop	ar6
      000961 EF               [12] 1864 	mov	a,r7
      000962 62*16            [12] 1865 	xrl	_InvMixColumns_sloc0_1_0,a
      000964 90r00rC4         [24] 1866 	mov	dptr,#_InvMixColumns_d_1_54
      000967 E0               [24] 1867 	movx	a,@dptr
      000968 FF               [12] 1868 	mov	r7,a
      000969 90r00r00         [24] 1869 	mov	dptr,#_enc_dec_accel_galois_multiply_PARM_2
      00096C 74 09            [12] 1870 	mov	a,#0x09
      00096E F0               [24] 1871 	movx	@dptr,a
      00096F 8F 82            [24] 1872 	mov	dpl,r7
      000971 C0 07            [24] 1873 	push	ar7
      000973 C0 06            [24] 1874 	push	ar6
      000975 C0 02            [24] 1875 	push	ar2
      000977 C0 01            [24] 1876 	push	ar1
      000979 C0 00            [24] 1877 	push	ar0
      00097B 12r00r00         [24] 1878 	lcall	_enc_dec_accel_galois_multiply
      00097E AD 82            [24] 1879 	mov	r5,dpl
      000980 D0 00            [24] 1880 	pop	ar0
      000982 D0 01            [24] 1881 	pop	ar1
      000984 D0 02            [24] 1882 	pop	ar2
      000986 E5*16            [12] 1883 	mov	a,_InvMixColumns_sloc0_1_0
      000988 62 05            [12] 1884 	xrl	ar5,a
      00098A 85*19 82         [24] 1885 	mov	dpl,_InvMixColumns_sloc2_1_0
      00098D 85*1A 83         [24] 1886 	mov	dph,(_InvMixColumns_sloc2_1_0 + 1)
      000990 85*1B F0         [24] 1887 	mov	b,(_InvMixColumns_sloc2_1_0 + 2)
      000993 ED               [12] 1888 	mov	a,r5
      000994 12r00r00         [24] 1889 	lcall	__gptrput
                                   1890 ;	src/aes.c:340: (*state)[i][1] = Multiply(a, 0x09) ^ Multiply(b, 0x0e) ^ Multiply(c, 0x0b) ^ Multiply(d, 0x0d);
      000997 90r00r00         [24] 1891 	mov	dptr,#_state
      00099A E0               [24] 1892 	movx	a,@dptr
      00099B FB               [12] 1893 	mov	r3,a
      00099C A3               [24] 1894 	inc	dptr
      00099D E0               [24] 1895 	movx	a,@dptr
      00099E FC               [12] 1896 	mov	r4,a
      00099F A3               [24] 1897 	inc	dptr
      0009A0 E0               [24] 1898 	movx	a,@dptr
      0009A1 FD               [12] 1899 	mov	r5,a
      0009A2 E9               [12] 1900 	mov	a,r1
      0009A3 2B               [12] 1901 	add	a,r3
      0009A4 FB               [12] 1902 	mov	r3,a
      0009A5 EA               [12] 1903 	mov	a,r2
      0009A6 3C               [12] 1904 	addc	a,r4
      0009A7 FC               [12] 1905 	mov	r4,a
      0009A8 74 01            [12] 1906 	mov	a,#0x01
      0009AA 2B               [12] 1907 	add	a,r3
      0009AB F5*19            [12] 1908 	mov	_InvMixColumns_sloc2_1_0,a
      0009AD E4               [12] 1909 	clr	a
      0009AE 3C               [12] 1910 	addc	a,r4
      0009AF F5*1A            [12] 1911 	mov	(_InvMixColumns_sloc2_1_0 + 1),a
      0009B1 8D*1B            [24] 1912 	mov	(_InvMixColumns_sloc2_1_0 + 2),r5
      0009B3 90r00rC1         [24] 1913 	mov	dptr,#_InvMixColumns_a_1_54
      0009B6 E0               [24] 1914 	movx	a,@dptr
      0009B7 F5*16            [12] 1915 	mov	_InvMixColumns_sloc0_1_0,a
      0009B9 90r00r00         [24] 1916 	mov	dptr,#_enc_dec_accel_galois_multiply_PARM_2
      0009BC 74 09            [12] 1917 	mov	a,#0x09
      0009BE F0               [24] 1918 	movx	@dptr,a
      0009BF 85*16 82         [24] 1919 	mov	dpl,_InvMixColumns_sloc0_1_0
      0009C2 C0 02            [24] 1920 	push	ar2
      0009C4 C0 01            [24] 1921 	push	ar1
      0009C6 C0 00            [24] 1922 	push	ar0
      0009C8 12r00r00         [24] 1923 	lcall	_enc_dec_accel_galois_multiply
      0009CB AC 82            [24] 1924 	mov	r4,dpl
      0009CD D0 00            [24] 1925 	pop	ar0
      0009CF D0 01            [24] 1926 	pop	ar1
      0009D1 D0 02            [24] 1927 	pop	ar2
      0009D3 D0 06            [24] 1928 	pop	ar6
      0009D5 90r00r00         [24] 1929 	mov	dptr,#_enc_dec_accel_galois_multiply_PARM_2
      0009D8 74 0E            [12] 1930 	mov	a,#0x0e
      0009DA F0               [24] 1931 	movx	@dptr,a
      0009DB 8E 82            [24] 1932 	mov	dpl,r6
      0009DD C0 06            [24] 1933 	push	ar6
      0009DF C0 04            [24] 1934 	push	ar4
      0009E1 C0 02            [24] 1935 	push	ar2
      0009E3 C0 01            [24] 1936 	push	ar1
      0009E5 C0 00            [24] 1937 	push	ar0
      0009E7 12r00r00         [24] 1938 	lcall	_enc_dec_accel_galois_multiply
      0009EA AB 82            [24] 1939 	mov	r3,dpl
      0009EC D0 00            [24] 1940 	pop	ar0
      0009EE D0 01            [24] 1941 	pop	ar1
      0009F0 D0 02            [24] 1942 	pop	ar2
      0009F2 D0 04            [24] 1943 	pop	ar4
      0009F4 EB               [12] 1944 	mov	a,r3
      0009F5 62 04            [12] 1945 	xrl	ar4,a
      0009F7 90r00r00         [24] 1946 	mov	dptr,#_enc_dec_accel_galois_multiply_PARM_2
      0009FA 74 0B            [12] 1947 	mov	a,#0x0b
      0009FC F0               [24] 1948 	movx	@dptr,a
      0009FD 88 82            [24] 1949 	mov	dpl,r0
      0009FF C0 04            [24] 1950 	push	ar4
      000A01 C0 02            [24] 1951 	push	ar2
      000A03 C0 01            [24] 1952 	push	ar1
      000A05 C0 00            [24] 1953 	push	ar0
      000A07 12r00r00         [24] 1954 	lcall	_enc_dec_accel_galois_multiply
      000A0A AB 82            [24] 1955 	mov	r3,dpl
      000A0C D0 00            [24] 1956 	pop	ar0
      000A0E D0 01            [24] 1957 	pop	ar1
      000A10 D0 02            [24] 1958 	pop	ar2
      000A12 D0 04            [24] 1959 	pop	ar4
      000A14 D0 06            [24] 1960 	pop	ar6
      000A16 D0 07            [24] 1961 	pop	ar7
      000A18 EB               [12] 1962 	mov	a,r3
      000A19 62 04            [12] 1963 	xrl	ar4,a
      000A1B 90r00r00         [24] 1964 	mov	dptr,#_enc_dec_accel_galois_multiply_PARM_2
      000A1E 74 0D            [12] 1965 	mov	a,#0x0d
      000A20 F0               [24] 1966 	movx	@dptr,a
      000A21 8F 82            [24] 1967 	mov	dpl,r7
      000A23 C0 07            [24] 1968 	push	ar7
      000A25 C0 06            [24] 1969 	push	ar6
      000A27 C0 04            [24] 1970 	push	ar4
      000A29 C0 02            [24] 1971 	push	ar2
      000A2B C0 01            [24] 1972 	push	ar1
      000A2D C0 00            [24] 1973 	push	ar0
      000A2F 12r00r00         [24] 1974 	lcall	_enc_dec_accel_galois_multiply
      000A32 AB 82            [24] 1975 	mov	r3,dpl
      000A34 D0 00            [24] 1976 	pop	ar0
      000A36 D0 01            [24] 1977 	pop	ar1
      000A38 D0 02            [24] 1978 	pop	ar2
      000A3A D0 04            [24] 1979 	pop	ar4
      000A3C EB               [12] 1980 	mov	a,r3
      000A3D 62 04            [12] 1981 	xrl	ar4,a
      000A3F 85*19 82         [24] 1982 	mov	dpl,_InvMixColumns_sloc2_1_0
      000A42 85*1A 83         [24] 1983 	mov	dph,(_InvMixColumns_sloc2_1_0 + 1)
      000A45 85*1B F0         [24] 1984 	mov	b,(_InvMixColumns_sloc2_1_0 + 2)
      000A48 EC               [12] 1985 	mov	a,r4
      000A49 12r00r00         [24] 1986 	lcall	__gptrput
                                   1987 ;	src/aes.c:341: (*state)[i][2] = Multiply(a, 0x0d) ^ Multiply(b, 0x09) ^ Multiply(c, 0x0e) ^ Multiply(d, 0x0b);
      000A4C 90r00r00         [24] 1988 	mov	dptr,#_state
      000A4F E0               [24] 1989 	movx	a,@dptr
      000A50 FB               [12] 1990 	mov	r3,a
      000A51 A3               [24] 1991 	inc	dptr
      000A52 E0               [24] 1992 	movx	a,@dptr
      000A53 FC               [12] 1993 	mov	r4,a
      000A54 A3               [24] 1994 	inc	dptr
      000A55 E0               [24] 1995 	movx	a,@dptr
      000A56 FD               [12] 1996 	mov	r5,a
      000A57 E9               [12] 1997 	mov	a,r1
      000A58 2B               [12] 1998 	add	a,r3
      000A59 FB               [12] 1999 	mov	r3,a
      000A5A EA               [12] 2000 	mov	a,r2
      000A5B 3C               [12] 2001 	addc	a,r4
      000A5C FC               [12] 2002 	mov	r4,a
      000A5D 74 02            [12] 2003 	mov	a,#0x02
      000A5F 2B               [12] 2004 	add	a,r3
      000A60 F5*19            [12] 2005 	mov	_InvMixColumns_sloc2_1_0,a
      000A62 E4               [12] 2006 	clr	a
      000A63 3C               [12] 2007 	addc	a,r4
      000A64 F5*1A            [12] 2008 	mov	(_InvMixColumns_sloc2_1_0 + 1),a
      000A66 8D*1B            [24] 2009 	mov	(_InvMixColumns_sloc2_1_0 + 2),r5
      000A68 90r00r00         [24] 2010 	mov	dptr,#_enc_dec_accel_galois_multiply_PARM_2
      000A6B 74 0D            [12] 2011 	mov	a,#0x0d
      000A6D F0               [24] 2012 	movx	@dptr,a
      000A6E 85*16 82         [24] 2013 	mov	dpl,_InvMixColumns_sloc0_1_0
      000A71 C0 02            [24] 2014 	push	ar2
      000A73 C0 01            [24] 2015 	push	ar1
      000A75 C0 00            [24] 2016 	push	ar0
      000A77 12r00r00         [24] 2017 	lcall	_enc_dec_accel_galois_multiply
      000A7A AD 82            [24] 2018 	mov	r5,dpl
      000A7C D0 00            [24] 2019 	pop	ar0
      000A7E D0 01            [24] 2020 	pop	ar1
      000A80 D0 02            [24] 2021 	pop	ar2
      000A82 D0 06            [24] 2022 	pop	ar6
      000A84 90r00r00         [24] 2023 	mov	dptr,#_enc_dec_accel_galois_multiply_PARM_2
      000A87 74 09            [12] 2024 	mov	a,#0x09
      000A89 F0               [24] 2025 	movx	@dptr,a
      000A8A 8E 82            [24] 2026 	mov	dpl,r6
      000A8C C0 06            [24] 2027 	push	ar6
      000A8E C0 05            [24] 2028 	push	ar5
      000A90 C0 02            [24] 2029 	push	ar2
      000A92 C0 01            [24] 2030 	push	ar1
      000A94 C0 00            [24] 2031 	push	ar0
      000A96 12r00r00         [24] 2032 	lcall	_enc_dec_accel_galois_multiply
      000A99 AC 82            [24] 2033 	mov	r4,dpl
      000A9B D0 00            [24] 2034 	pop	ar0
      000A9D D0 01            [24] 2035 	pop	ar1
      000A9F D0 02            [24] 2036 	pop	ar2
      000AA1 D0 05            [24] 2037 	pop	ar5
      000AA3 EC               [12] 2038 	mov	a,r4
      000AA4 62 05            [12] 2039 	xrl	ar5,a
      000AA6 90r00r00         [24] 2040 	mov	dptr,#_enc_dec_accel_galois_multiply_PARM_2
      000AA9 74 0E            [12] 2041 	mov	a,#0x0e
      000AAB F0               [24] 2042 	movx	@dptr,a
      000AAC 88 82            [24] 2043 	mov	dpl,r0
      000AAE C0 05            [24] 2044 	push	ar5
      000AB0 C0 02            [24] 2045 	push	ar2
      000AB2 C0 01            [24] 2046 	push	ar1
      000AB4 C0 00            [24] 2047 	push	ar0
      000AB6 12r00r00         [24] 2048 	lcall	_enc_dec_accel_galois_multiply
      000AB9 AC 82            [24] 2049 	mov	r4,dpl
      000ABB D0 00            [24] 2050 	pop	ar0
      000ABD D0 01            [24] 2051 	pop	ar1
      000ABF D0 02            [24] 2052 	pop	ar2
      000AC1 D0 05            [24] 2053 	pop	ar5
      000AC3 D0 06            [24] 2054 	pop	ar6
      000AC5 D0 07            [24] 2055 	pop	ar7
      000AC7 EC               [12] 2056 	mov	a,r4
      000AC8 62 05            [12] 2057 	xrl	ar5,a
      000ACA 90r00r00         [24] 2058 	mov	dptr,#_enc_dec_accel_galois_multiply_PARM_2
      000ACD 74 0B            [12] 2059 	mov	a,#0x0b
      000ACF F0               [24] 2060 	movx	@dptr,a
      000AD0 8F 82            [24] 2061 	mov	dpl,r7
      000AD2 C0 07            [24] 2062 	push	ar7
      000AD4 C0 06            [24] 2063 	push	ar6
      000AD6 C0 05            [24] 2064 	push	ar5
      000AD8 C0 02            [24] 2065 	push	ar2
      000ADA C0 01            [24] 2066 	push	ar1
      000ADC C0 00            [24] 2067 	push	ar0
      000ADE 12r00r00         [24] 2068 	lcall	_enc_dec_accel_galois_multiply
      000AE1 AC 82            [24] 2069 	mov	r4,dpl
      000AE3 D0 00            [24] 2070 	pop	ar0
      000AE5 D0 01            [24] 2071 	pop	ar1
      000AE7 D0 02            [24] 2072 	pop	ar2
      000AE9 D0 05            [24] 2073 	pop	ar5
      000AEB EC               [12] 2074 	mov	a,r4
      000AEC 62 05            [12] 2075 	xrl	ar5,a
      000AEE 85*19 82         [24] 2076 	mov	dpl,_InvMixColumns_sloc2_1_0
      000AF1 85*1A 83         [24] 2077 	mov	dph,(_InvMixColumns_sloc2_1_0 + 1)
      000AF4 85*1B F0         [24] 2078 	mov	b,(_InvMixColumns_sloc2_1_0 + 2)
      000AF7 ED               [12] 2079 	mov	a,r5
      000AF8 12r00r00         [24] 2080 	lcall	__gptrput
                                   2081 ;	src/aes.c:342: (*state)[i][3] = Multiply(a, 0x0b) ^ Multiply(b, 0x0d) ^ Multiply(c, 0x09) ^ Multiply(d, 0x0e);
      000AFB 90r00r00         [24] 2082 	mov	dptr,#_state
      000AFE E0               [24] 2083 	movx	a,@dptr
      000AFF FB               [12] 2084 	mov	r3,a
      000B00 A3               [24] 2085 	inc	dptr
      000B01 E0               [24] 2086 	movx	a,@dptr
      000B02 FC               [12] 2087 	mov	r4,a
      000B03 A3               [24] 2088 	inc	dptr
      000B04 E0               [24] 2089 	movx	a,@dptr
      000B05 FD               [12] 2090 	mov	r5,a
      000B06 E9               [12] 2091 	mov	a,r1
      000B07 2B               [12] 2092 	add	a,r3
      000B08 FB               [12] 2093 	mov	r3,a
      000B09 EA               [12] 2094 	mov	a,r2
      000B0A 3C               [12] 2095 	addc	a,r4
      000B0B FC               [12] 2096 	mov	r4,a
      000B0C 74 03            [12] 2097 	mov	a,#0x03
      000B0E 2B               [12] 2098 	add	a,r3
      000B0F FB               [12] 2099 	mov	r3,a
      000B10 E4               [12] 2100 	clr	a
      000B11 3C               [12] 2101 	addc	a,r4
      000B12 FC               [12] 2102 	mov	r4,a
      000B13 90r00r00         [24] 2103 	mov	dptr,#_enc_dec_accel_galois_multiply_PARM_2
      000B16 74 0B            [12] 2104 	mov	a,#0x0b
      000B18 F0               [24] 2105 	movx	@dptr,a
      000B19 85*16 82         [24] 2106 	mov	dpl,_InvMixColumns_sloc0_1_0
      000B1C C0 05            [24] 2107 	push	ar5
      000B1E C0 04            [24] 2108 	push	ar4
      000B20 C0 03            [24] 2109 	push	ar3
      000B22 C0 00            [24] 2110 	push	ar0
      000B24 12r00r00         [24] 2111 	lcall	_enc_dec_accel_galois_multiply
      000B27 AA 82            [24] 2112 	mov	r2,dpl
      000B29 D0 00            [24] 2113 	pop	ar0
      000B2B D0 03            [24] 2114 	pop	ar3
      000B2D D0 04            [24] 2115 	pop	ar4
      000B2F D0 05            [24] 2116 	pop	ar5
      000B31 D0 06            [24] 2117 	pop	ar6
      000B33 90r00r00         [24] 2118 	mov	dptr,#_enc_dec_accel_galois_multiply_PARM_2
      000B36 74 0D            [12] 2119 	mov	a,#0x0d
      000B38 F0               [24] 2120 	movx	@dptr,a
      000B39 8E 82            [24] 2121 	mov	dpl,r6
      000B3B C0 05            [24] 2122 	push	ar5
      000B3D C0 04            [24] 2123 	push	ar4
      000B3F C0 03            [24] 2124 	push	ar3
      000B41 C0 02            [24] 2125 	push	ar2
      000B43 C0 00            [24] 2126 	push	ar0
      000B45 12r00r00         [24] 2127 	lcall	_enc_dec_accel_galois_multiply
      000B48 AE 82            [24] 2128 	mov	r6,dpl
      000B4A D0 00            [24] 2129 	pop	ar0
      000B4C D0 02            [24] 2130 	pop	ar2
      000B4E EE               [12] 2131 	mov	a,r6
      000B4F 62 02            [12] 2132 	xrl	ar2,a
      000B51 90r00r00         [24] 2133 	mov	dptr,#_enc_dec_accel_galois_multiply_PARM_2
      000B54 74 09            [12] 2134 	mov	a,#0x09
      000B56 F0               [24] 2135 	movx	@dptr,a
      000B57 88 82            [24] 2136 	mov	dpl,r0
      000B59 C0 02            [24] 2137 	push	ar2
      000B5B 12r00r00         [24] 2138 	lcall	_enc_dec_accel_galois_multiply
      000B5E AE 82            [24] 2139 	mov	r6,dpl
      000B60 D0 02            [24] 2140 	pop	ar2
      000B62 D0 03            [24] 2141 	pop	ar3
      000B64 D0 04            [24] 2142 	pop	ar4
      000B66 D0 05            [24] 2143 	pop	ar5
      000B68 D0 07            [24] 2144 	pop	ar7
      000B6A EE               [12] 2145 	mov	a,r6
      000B6B 62 02            [12] 2146 	xrl	ar2,a
      000B6D 90r00r00         [24] 2147 	mov	dptr,#_enc_dec_accel_galois_multiply_PARM_2
      000B70 74 0E            [12] 2148 	mov	a,#0x0e
      000B72 F0               [24] 2149 	movx	@dptr,a
      000B73 8F 82            [24] 2150 	mov	dpl,r7
      000B75 C0 05            [24] 2151 	push	ar5
      000B77 C0 04            [24] 2152 	push	ar4
      000B79 C0 03            [24] 2153 	push	ar3
      000B7B C0 02            [24] 2154 	push	ar2
      000B7D 12r00r00         [24] 2155 	lcall	_enc_dec_accel_galois_multiply
      000B80 AF 82            [24] 2156 	mov	r7,dpl
      000B82 D0 02            [24] 2157 	pop	ar2
      000B84 D0 03            [24] 2158 	pop	ar3
      000B86 D0 04            [24] 2159 	pop	ar4
      000B88 D0 05            [24] 2160 	pop	ar5
      000B8A EF               [12] 2161 	mov	a,r7
      000B8B 62 02            [12] 2162 	xrl	ar2,a
      000B8D 8B 82            [24] 2163 	mov	dpl,r3
      000B8F 8C 83            [24] 2164 	mov	dph,r4
      000B91 8D F0            [24] 2165 	mov	b,r5
      000B93 EA               [12] 2166 	mov	a,r2
      000B94 12r00r00         [24] 2167 	lcall	__gptrput
                                   2168 ;	src/aes.c:332: for(i=0;i<4;++i)
      000B97 05*17            [12] 2169 	inc	_InvMixColumns_sloc1_1_0
      000B99 E4               [12] 2170 	clr	a
      000B9A B5*17 02         [24] 2171 	cjne	a,_InvMixColumns_sloc1_1_0,00110$
      000B9D 05*18            [12] 2172 	inc	(_InvMixColumns_sloc1_1_0 + 1)
      000B9F                       2173 00110$:
      000B9F C3               [12] 2174 	clr	c
      000BA0 E5*17            [12] 2175 	mov	a,_InvMixColumns_sloc1_1_0
      000BA2 94 04            [12] 2176 	subb	a,#0x04
      000BA4 E5*18            [12] 2177 	mov	a,(_InvMixColumns_sloc1_1_0 + 1)
      000BA6 64 80            [12] 2178 	xrl	a,#0x80
      000BA8 94 80            [12] 2179 	subb	a,#0x80
      000BAA 50 03            [24] 2180 	jnc	00111$
      000BAC 02r08r8C         [24] 2181 	ljmp	00102$
      000BAF                       2182 00111$:
      000BAF 22               [24] 2183 	ret
                                   2184 ;------------------------------------------------------------
                                   2185 ;Allocation info for local variables in function 'InvSubBytes'
                                   2186 ;------------------------------------------------------------
                                   2187 ;i                         Allocated with name '_InvSubBytes_i_1_57'
                                   2188 ;j                         Allocated with name '_InvSubBytes_j_1_57'
                                   2189 ;------------------------------------------------------------
                                   2190 ;	src/aes.c:349: static void InvSubBytes(void)
                                   2191 ;	-----------------------------------------
                                   2192 ;	 function InvSubBytes
                                   2193 ;	-----------------------------------------
      000BB0                       2194 _InvSubBytes:
                                   2195 ;	src/aes.c:352: for(i=0;i<4;++i)
      000BB0 7F 00            [12] 2196 	mov	r7,#0x00
                                   2197 ;	src/aes.c:354: for(j=0;j<4;++j)
      000BB2                       2198 00109$:
      000BB2 8F 06            [24] 2199 	mov	ar6,r7
      000BB4 7D 00            [12] 2200 	mov	r5,#0x00
      000BB6                       2201 00103$:
                                   2202 ;	src/aes.c:356: (*state)[j][i] = getSBoxInvert((*state)[j][i]);
      000BB6 90r00r00         [24] 2203 	mov	dptr,#_state
      000BB9 E0               [24] 2204 	movx	a,@dptr
      000BBA FA               [12] 2205 	mov	r2,a
      000BBB A3               [24] 2206 	inc	dptr
      000BBC E0               [24] 2207 	movx	a,@dptr
      000BBD FB               [12] 2208 	mov	r3,a
      000BBE A3               [24] 2209 	inc	dptr
      000BBF E0               [24] 2210 	movx	a,@dptr
      000BC0 FC               [12] 2211 	mov	r4,a
      000BC1 ED               [12] 2212 	mov	a,r5
      000BC2 2D               [12] 2213 	add	a,r5
      000BC3 25 E0            [12] 2214 	add	a,acc
      000BC5 2A               [12] 2215 	add	a,r2
      000BC6 FA               [12] 2216 	mov	r2,a
      000BC7 E4               [12] 2217 	clr	a
      000BC8 3B               [12] 2218 	addc	a,r3
      000BC9 FB               [12] 2219 	mov	r3,a
      000BCA EE               [12] 2220 	mov	a,r6
      000BCB 2A               [12] 2221 	add	a,r2
      000BCC FA               [12] 2222 	mov	r2,a
      000BCD E4               [12] 2223 	clr	a
      000BCE 3B               [12] 2224 	addc	a,r3
      000BCF FB               [12] 2225 	mov	r3,a
      000BD0 8A 82            [24] 2226 	mov	dpl,r2
      000BD2 8B 83            [24] 2227 	mov	dph,r3
      000BD4 8C F0            [24] 2228 	mov	b,r4
      000BD6 12r00r00         [24] 2229 	lcall	__gptrget
      000BD9 F5 82            [12] 2230 	mov	dpl,a
      000BDB C0 06            [24] 2231 	push	ar6
      000BDD C0 05            [24] 2232 	push	ar5
      000BDF C0 04            [24] 2233 	push	ar4
      000BE1 C0 03            [24] 2234 	push	ar3
      000BE3 C0 02            [24] 2235 	push	ar2
      000BE5 12r00r0E         [24] 2236 	lcall	_getSBoxInvert
      000BE8 A9 82            [24] 2237 	mov	r1,dpl
      000BEA D0 02            [24] 2238 	pop	ar2
      000BEC D0 03            [24] 2239 	pop	ar3
      000BEE D0 04            [24] 2240 	pop	ar4
      000BF0 D0 05            [24] 2241 	pop	ar5
      000BF2 D0 06            [24] 2242 	pop	ar6
      000BF4 8A 82            [24] 2243 	mov	dpl,r2
      000BF6 8B 83            [24] 2244 	mov	dph,r3
      000BF8 8C F0            [24] 2245 	mov	b,r4
      000BFA E9               [12] 2246 	mov	a,r1
      000BFB 12r00r00         [24] 2247 	lcall	__gptrput
                                   2248 ;	src/aes.c:354: for(j=0;j<4;++j)
      000BFE 0D               [12] 2249 	inc	r5
      000BFF BD 04 00         [24] 2250 	cjne	r5,#0x04,00120$
      000C02                       2251 00120$:
      000C02 40 B2            [24] 2252 	jc	00103$
                                   2253 ;	src/aes.c:352: for(i=0;i<4;++i)
      000C04 EE               [12] 2254 	mov	a,r6
      000C05 04               [12] 2255 	inc	a
      000C06 FF               [12] 2256 	mov	r7,a
      000C07 BF 04 00         [24] 2257 	cjne	r7,#0x04,00122$
      000C0A                       2258 00122$:
      000C0A 40 A6            [24] 2259 	jc	00109$
      000C0C 22               [24] 2260 	ret
                                   2261 ;------------------------------------------------------------
                                   2262 ;Allocation info for local variables in function 'InvShiftRows'
                                   2263 ;------------------------------------------------------------
                                   2264 ;temp                      Allocated with name '_InvShiftRows_temp_1_61'
                                   2265 ;------------------------------------------------------------
                                   2266 ;	src/aes.c:361: static void InvShiftRows(void)
                                   2267 ;	-----------------------------------------
                                   2268 ;	 function InvShiftRows
                                   2269 ;	-----------------------------------------
      000C0D                       2270 _InvShiftRows:
                                   2271 ;	src/aes.c:366: temp=(*state)[3][1];
      000C0D 90r00r00         [24] 2272 	mov	dptr,#_state
      000C10 E0               [24] 2273 	movx	a,@dptr
      000C11 FD               [12] 2274 	mov	r5,a
      000C12 A3               [24] 2275 	inc	dptr
      000C13 E0               [24] 2276 	movx	a,@dptr
      000C14 FE               [12] 2277 	mov	r6,a
      000C15 A3               [24] 2278 	inc	dptr
      000C16 E0               [24] 2279 	movx	a,@dptr
      000C17 FF               [12] 2280 	mov	r7,a
      000C18 74 0D            [12] 2281 	mov	a,#0x0d
      000C1A 2D               [12] 2282 	add	a,r5
      000C1B FA               [12] 2283 	mov	r2,a
      000C1C E4               [12] 2284 	clr	a
      000C1D 3E               [12] 2285 	addc	a,r6
      000C1E FB               [12] 2286 	mov	r3,a
      000C1F 8F 04            [24] 2287 	mov	ar4,r7
      000C21 8A 82            [24] 2288 	mov	dpl,r2
      000C23 8B 83            [24] 2289 	mov	dph,r3
      000C25 8C F0            [24] 2290 	mov	b,r4
      000C27 12r00r00         [24] 2291 	lcall	__gptrget
      000C2A F9               [12] 2292 	mov	r1,a
      000C2B 90r00rC5         [24] 2293 	mov	dptr,#_InvShiftRows_temp_1_61
      000C2E F0               [24] 2294 	movx	@dptr,a
                                   2295 ;	src/aes.c:367: (*state)[3][1]=(*state)[2][1];
      000C2F 74 09            [12] 2296 	mov	a,#0x09
      000C31 2D               [12] 2297 	add	a,r5
      000C32 FD               [12] 2298 	mov	r5,a
      000C33 E4               [12] 2299 	clr	a
      000C34 3E               [12] 2300 	addc	a,r6
      000C35 FE               [12] 2301 	mov	r6,a
      000C36 8D 82            [24] 2302 	mov	dpl,r5
      000C38 8E 83            [24] 2303 	mov	dph,r6
      000C3A 8F F0            [24] 2304 	mov	b,r7
      000C3C 12r00r00         [24] 2305 	lcall	__gptrget
      000C3F 8A 82            [24] 2306 	mov	dpl,r2
      000C41 8B 83            [24] 2307 	mov	dph,r3
      000C43 8C F0            [24] 2308 	mov	b,r4
      000C45 12r00r00         [24] 2309 	lcall	__gptrput
                                   2310 ;	src/aes.c:368: (*state)[2][1]=(*state)[1][1];
      000C48 90r00r00         [24] 2311 	mov	dptr,#_state
      000C4B E0               [24] 2312 	movx	a,@dptr
      000C4C FD               [12] 2313 	mov	r5,a
      000C4D A3               [24] 2314 	inc	dptr
      000C4E E0               [24] 2315 	movx	a,@dptr
      000C4F FE               [12] 2316 	mov	r6,a
      000C50 A3               [24] 2317 	inc	dptr
      000C51 E0               [24] 2318 	movx	a,@dptr
      000C52 FF               [12] 2319 	mov	r7,a
      000C53 74 09            [12] 2320 	mov	a,#0x09
      000C55 2D               [12] 2321 	add	a,r5
      000C56 FA               [12] 2322 	mov	r2,a
      000C57 E4               [12] 2323 	clr	a
      000C58 3E               [12] 2324 	addc	a,r6
      000C59 FB               [12] 2325 	mov	r3,a
      000C5A 8F 04            [24] 2326 	mov	ar4,r7
      000C5C 74 05            [12] 2327 	mov	a,#0x05
      000C5E 2D               [12] 2328 	add	a,r5
      000C5F FD               [12] 2329 	mov	r5,a
      000C60 E4               [12] 2330 	clr	a
      000C61 3E               [12] 2331 	addc	a,r6
      000C62 FE               [12] 2332 	mov	r6,a
      000C63 8D 82            [24] 2333 	mov	dpl,r5
      000C65 8E 83            [24] 2334 	mov	dph,r6
      000C67 8F F0            [24] 2335 	mov	b,r7
      000C69 12r00r00         [24] 2336 	lcall	__gptrget
      000C6C 8A 82            [24] 2337 	mov	dpl,r2
      000C6E 8B 83            [24] 2338 	mov	dph,r3
      000C70 8C F0            [24] 2339 	mov	b,r4
      000C72 12r00r00         [24] 2340 	lcall	__gptrput
                                   2341 ;	src/aes.c:369: (*state)[1][1]=(*state)[0][1];
      000C75 90r00r00         [24] 2342 	mov	dptr,#_state
      000C78 E0               [24] 2343 	movx	a,@dptr
      000C79 FD               [12] 2344 	mov	r5,a
      000C7A A3               [24] 2345 	inc	dptr
      000C7B E0               [24] 2346 	movx	a,@dptr
      000C7C FE               [12] 2347 	mov	r6,a
      000C7D A3               [24] 2348 	inc	dptr
      000C7E E0               [24] 2349 	movx	a,@dptr
      000C7F FF               [12] 2350 	mov	r7,a
      000C80 74 05            [12] 2351 	mov	a,#0x05
      000C82 2D               [12] 2352 	add	a,r5
      000C83 FA               [12] 2353 	mov	r2,a
      000C84 E4               [12] 2354 	clr	a
      000C85 3E               [12] 2355 	addc	a,r6
      000C86 FB               [12] 2356 	mov	r3,a
      000C87 8F 04            [24] 2357 	mov	ar4,r7
      000C89 0D               [12] 2358 	inc	r5
      000C8A BD 00 01         [24] 2359 	cjne	r5,#0x00,00103$
      000C8D 0E               [12] 2360 	inc	r6
      000C8E                       2361 00103$:
      000C8E 8D 82            [24] 2362 	mov	dpl,r5
      000C90 8E 83            [24] 2363 	mov	dph,r6
      000C92 8F F0            [24] 2364 	mov	b,r7
      000C94 12r00r00         [24] 2365 	lcall	__gptrget
      000C97 8A 82            [24] 2366 	mov	dpl,r2
      000C99 8B 83            [24] 2367 	mov	dph,r3
      000C9B 8C F0            [24] 2368 	mov	b,r4
      000C9D 12r00r00         [24] 2369 	lcall	__gptrput
                                   2370 ;	src/aes.c:370: (*state)[0][1]=temp;
      000CA0 90r00r00         [24] 2371 	mov	dptr,#_state
      000CA3 E0               [24] 2372 	movx	a,@dptr
      000CA4 FD               [12] 2373 	mov	r5,a
      000CA5 A3               [24] 2374 	inc	dptr
      000CA6 E0               [24] 2375 	movx	a,@dptr
      000CA7 FE               [12] 2376 	mov	r6,a
      000CA8 A3               [24] 2377 	inc	dptr
      000CA9 E0               [24] 2378 	movx	a,@dptr
      000CAA FF               [12] 2379 	mov	r7,a
      000CAB 0D               [12] 2380 	inc	r5
      000CAC BD 00 01         [24] 2381 	cjne	r5,#0x00,00104$
      000CAF 0E               [12] 2382 	inc	r6
      000CB0                       2383 00104$:
      000CB0 90r00rC5         [24] 2384 	mov	dptr,#_InvShiftRows_temp_1_61
      000CB3 E0               [24] 2385 	movx	a,@dptr
      000CB4 8D 82            [24] 2386 	mov	dpl,r5
      000CB6 8E 83            [24] 2387 	mov	dph,r6
      000CB8 8F F0            [24] 2388 	mov	b,r7
      000CBA 12r00r00         [24] 2389 	lcall	__gptrput
                                   2390 ;	src/aes.c:373: temp=(*state)[0][2];
      000CBD 90r00r00         [24] 2391 	mov	dptr,#_state
      000CC0 E0               [24] 2392 	movx	a,@dptr
      000CC1 FD               [12] 2393 	mov	r5,a
      000CC2 A3               [24] 2394 	inc	dptr
      000CC3 E0               [24] 2395 	movx	a,@dptr
      000CC4 FE               [12] 2396 	mov	r6,a
      000CC5 A3               [24] 2397 	inc	dptr
      000CC6 E0               [24] 2398 	movx	a,@dptr
      000CC7 FF               [12] 2399 	mov	r7,a
      000CC8 74 02            [12] 2400 	mov	a,#0x02
      000CCA 2D               [12] 2401 	add	a,r5
      000CCB FA               [12] 2402 	mov	r2,a
      000CCC E4               [12] 2403 	clr	a
      000CCD 3E               [12] 2404 	addc	a,r6
      000CCE FB               [12] 2405 	mov	r3,a
      000CCF 8F 04            [24] 2406 	mov	ar4,r7
      000CD1 8A 82            [24] 2407 	mov	dpl,r2
      000CD3 8B 83            [24] 2408 	mov	dph,r3
      000CD5 8C F0            [24] 2409 	mov	b,r4
      000CD7 12r00r00         [24] 2410 	lcall	__gptrget
      000CDA 90r00rC5         [24] 2411 	mov	dptr,#_InvShiftRows_temp_1_61
      000CDD F0               [24] 2412 	movx	@dptr,a
                                   2413 ;	src/aes.c:374: (*state)[0][2]=(*state)[2][2];
      000CDE 74 0A            [12] 2414 	mov	a,#0x0a
      000CE0 2D               [12] 2415 	add	a,r5
      000CE1 FD               [12] 2416 	mov	r5,a
      000CE2 E4               [12] 2417 	clr	a
      000CE3 3E               [12] 2418 	addc	a,r6
      000CE4 FE               [12] 2419 	mov	r6,a
      000CE5 8D 82            [24] 2420 	mov	dpl,r5
      000CE7 8E 83            [24] 2421 	mov	dph,r6
      000CE9 8F F0            [24] 2422 	mov	b,r7
      000CEB 12r00r00         [24] 2423 	lcall	__gptrget
      000CEE 8A 82            [24] 2424 	mov	dpl,r2
      000CF0 8B 83            [24] 2425 	mov	dph,r3
      000CF2 8C F0            [24] 2426 	mov	b,r4
      000CF4 12r00r00         [24] 2427 	lcall	__gptrput
                                   2428 ;	src/aes.c:375: (*state)[2][2]=temp;
      000CF7 90r00r00         [24] 2429 	mov	dptr,#_state
      000CFA E0               [24] 2430 	movx	a,@dptr
      000CFB FD               [12] 2431 	mov	r5,a
      000CFC A3               [24] 2432 	inc	dptr
      000CFD E0               [24] 2433 	movx	a,@dptr
      000CFE FE               [12] 2434 	mov	r6,a
      000CFF A3               [24] 2435 	inc	dptr
      000D00 E0               [24] 2436 	movx	a,@dptr
      000D01 FF               [12] 2437 	mov	r7,a
      000D02 74 0A            [12] 2438 	mov	a,#0x0a
      000D04 2D               [12] 2439 	add	a,r5
      000D05 FD               [12] 2440 	mov	r5,a
      000D06 E4               [12] 2441 	clr	a
      000D07 3E               [12] 2442 	addc	a,r6
      000D08 FE               [12] 2443 	mov	r6,a
      000D09 90r00rC5         [24] 2444 	mov	dptr,#_InvShiftRows_temp_1_61
      000D0C E0               [24] 2445 	movx	a,@dptr
      000D0D 8D 82            [24] 2446 	mov	dpl,r5
      000D0F 8E 83            [24] 2447 	mov	dph,r6
      000D11 8F F0            [24] 2448 	mov	b,r7
      000D13 12r00r00         [24] 2449 	lcall	__gptrput
                                   2450 ;	src/aes.c:377: temp=(*state)[1][2];
      000D16 90r00r00         [24] 2451 	mov	dptr,#_state
      000D19 E0               [24] 2452 	movx	a,@dptr
      000D1A FD               [12] 2453 	mov	r5,a
      000D1B A3               [24] 2454 	inc	dptr
      000D1C E0               [24] 2455 	movx	a,@dptr
      000D1D FE               [12] 2456 	mov	r6,a
      000D1E A3               [24] 2457 	inc	dptr
      000D1F E0               [24] 2458 	movx	a,@dptr
      000D20 FF               [12] 2459 	mov	r7,a
      000D21 74 06            [12] 2460 	mov	a,#0x06
      000D23 2D               [12] 2461 	add	a,r5
      000D24 FA               [12] 2462 	mov	r2,a
      000D25 E4               [12] 2463 	clr	a
      000D26 3E               [12] 2464 	addc	a,r6
      000D27 FB               [12] 2465 	mov	r3,a
      000D28 8F 04            [24] 2466 	mov	ar4,r7
      000D2A 8A 82            [24] 2467 	mov	dpl,r2
      000D2C 8B 83            [24] 2468 	mov	dph,r3
      000D2E 8C F0            [24] 2469 	mov	b,r4
      000D30 12r00r00         [24] 2470 	lcall	__gptrget
      000D33 90r00rC5         [24] 2471 	mov	dptr,#_InvShiftRows_temp_1_61
      000D36 F0               [24] 2472 	movx	@dptr,a
                                   2473 ;	src/aes.c:378: (*state)[1][2]=(*state)[3][2];
      000D37 74 0E            [12] 2474 	mov	a,#0x0e
      000D39 2D               [12] 2475 	add	a,r5
      000D3A FD               [12] 2476 	mov	r5,a
      000D3B E4               [12] 2477 	clr	a
      000D3C 3E               [12] 2478 	addc	a,r6
      000D3D FE               [12] 2479 	mov	r6,a
      000D3E 8D 82            [24] 2480 	mov	dpl,r5
      000D40 8E 83            [24] 2481 	mov	dph,r6
      000D42 8F F0            [24] 2482 	mov	b,r7
      000D44 12r00r00         [24] 2483 	lcall	__gptrget
      000D47 8A 82            [24] 2484 	mov	dpl,r2
      000D49 8B 83            [24] 2485 	mov	dph,r3
      000D4B 8C F0            [24] 2486 	mov	b,r4
      000D4D 12r00r00         [24] 2487 	lcall	__gptrput
                                   2488 ;	src/aes.c:379: (*state)[3][2]=temp;
      000D50 90r00r00         [24] 2489 	mov	dptr,#_state
      000D53 E0               [24] 2490 	movx	a,@dptr
      000D54 FD               [12] 2491 	mov	r5,a
      000D55 A3               [24] 2492 	inc	dptr
      000D56 E0               [24] 2493 	movx	a,@dptr
      000D57 FE               [12] 2494 	mov	r6,a
      000D58 A3               [24] 2495 	inc	dptr
      000D59 E0               [24] 2496 	movx	a,@dptr
      000D5A FF               [12] 2497 	mov	r7,a
      000D5B 74 0E            [12] 2498 	mov	a,#0x0e
      000D5D 2D               [12] 2499 	add	a,r5
      000D5E FD               [12] 2500 	mov	r5,a
      000D5F E4               [12] 2501 	clr	a
      000D60 3E               [12] 2502 	addc	a,r6
      000D61 FE               [12] 2503 	mov	r6,a
      000D62 90r00rC5         [24] 2504 	mov	dptr,#_InvShiftRows_temp_1_61
      000D65 E0               [24] 2505 	movx	a,@dptr
      000D66 8D 82            [24] 2506 	mov	dpl,r5
      000D68 8E 83            [24] 2507 	mov	dph,r6
      000D6A 8F F0            [24] 2508 	mov	b,r7
      000D6C 12r00r00         [24] 2509 	lcall	__gptrput
                                   2510 ;	src/aes.c:382: temp=(*state)[0][3];
      000D6F 90r00r00         [24] 2511 	mov	dptr,#_state
      000D72 E0               [24] 2512 	movx	a,@dptr
      000D73 FD               [12] 2513 	mov	r5,a
      000D74 A3               [24] 2514 	inc	dptr
      000D75 E0               [24] 2515 	movx	a,@dptr
      000D76 FE               [12] 2516 	mov	r6,a
      000D77 A3               [24] 2517 	inc	dptr
      000D78 E0               [24] 2518 	movx	a,@dptr
      000D79 FF               [12] 2519 	mov	r7,a
      000D7A 74 03            [12] 2520 	mov	a,#0x03
      000D7C 2D               [12] 2521 	add	a,r5
      000D7D FA               [12] 2522 	mov	r2,a
      000D7E E4               [12] 2523 	clr	a
      000D7F 3E               [12] 2524 	addc	a,r6
      000D80 FB               [12] 2525 	mov	r3,a
      000D81 8F 04            [24] 2526 	mov	ar4,r7
      000D83 8A 82            [24] 2527 	mov	dpl,r2
      000D85 8B 83            [24] 2528 	mov	dph,r3
      000D87 8C F0            [24] 2529 	mov	b,r4
      000D89 12r00r00         [24] 2530 	lcall	__gptrget
      000D8C 90r00rC5         [24] 2531 	mov	dptr,#_InvShiftRows_temp_1_61
      000D8F F0               [24] 2532 	movx	@dptr,a
                                   2533 ;	src/aes.c:383: (*state)[0][3]=(*state)[1][3];
      000D90 74 07            [12] 2534 	mov	a,#0x07
      000D92 2D               [12] 2535 	add	a,r5
      000D93 FD               [12] 2536 	mov	r5,a
      000D94 E4               [12] 2537 	clr	a
      000D95 3E               [12] 2538 	addc	a,r6
      000D96 FE               [12] 2539 	mov	r6,a
      000D97 8D 82            [24] 2540 	mov	dpl,r5
      000D99 8E 83            [24] 2541 	mov	dph,r6
      000D9B 8F F0            [24] 2542 	mov	b,r7
      000D9D 12r00r00         [24] 2543 	lcall	__gptrget
      000DA0 8A 82            [24] 2544 	mov	dpl,r2
      000DA2 8B 83            [24] 2545 	mov	dph,r3
      000DA4 8C F0            [24] 2546 	mov	b,r4
      000DA6 12r00r00         [24] 2547 	lcall	__gptrput
                                   2548 ;	src/aes.c:384: (*state)[1][3]=(*state)[2][3];
      000DA9 90r00r00         [24] 2549 	mov	dptr,#_state
      000DAC E0               [24] 2550 	movx	a,@dptr
      000DAD FD               [12] 2551 	mov	r5,a
      000DAE A3               [24] 2552 	inc	dptr
      000DAF E0               [24] 2553 	movx	a,@dptr
      000DB0 FE               [12] 2554 	mov	r6,a
      000DB1 A3               [24] 2555 	inc	dptr
      000DB2 E0               [24] 2556 	movx	a,@dptr
      000DB3 FF               [12] 2557 	mov	r7,a
      000DB4 74 07            [12] 2558 	mov	a,#0x07
      000DB6 2D               [12] 2559 	add	a,r5
      000DB7 FA               [12] 2560 	mov	r2,a
      000DB8 E4               [12] 2561 	clr	a
      000DB9 3E               [12] 2562 	addc	a,r6
      000DBA FB               [12] 2563 	mov	r3,a
      000DBB 8F 04            [24] 2564 	mov	ar4,r7
      000DBD 74 0B            [12] 2565 	mov	a,#0x0b
      000DBF 2D               [12] 2566 	add	a,r5
      000DC0 FD               [12] 2567 	mov	r5,a
      000DC1 E4               [12] 2568 	clr	a
      000DC2 3E               [12] 2569 	addc	a,r6
      000DC3 FE               [12] 2570 	mov	r6,a
      000DC4 8D 82            [24] 2571 	mov	dpl,r5
      000DC6 8E 83            [24] 2572 	mov	dph,r6
      000DC8 8F F0            [24] 2573 	mov	b,r7
      000DCA 12r00r00         [24] 2574 	lcall	__gptrget
      000DCD 8A 82            [24] 2575 	mov	dpl,r2
      000DCF 8B 83            [24] 2576 	mov	dph,r3
      000DD1 8C F0            [24] 2577 	mov	b,r4
      000DD3 12r00r00         [24] 2578 	lcall	__gptrput
                                   2579 ;	src/aes.c:385: (*state)[2][3]=(*state)[3][3];
      000DD6 90r00r00         [24] 2580 	mov	dptr,#_state
      000DD9 E0               [24] 2581 	movx	a,@dptr
      000DDA FD               [12] 2582 	mov	r5,a
      000DDB A3               [24] 2583 	inc	dptr
      000DDC E0               [24] 2584 	movx	a,@dptr
      000DDD FE               [12] 2585 	mov	r6,a
      000DDE A3               [24] 2586 	inc	dptr
      000DDF E0               [24] 2587 	movx	a,@dptr
      000DE0 FF               [12] 2588 	mov	r7,a
      000DE1 74 0B            [12] 2589 	mov	a,#0x0b
      000DE3 2D               [12] 2590 	add	a,r5
      000DE4 FA               [12] 2591 	mov	r2,a
      000DE5 E4               [12] 2592 	clr	a
      000DE6 3E               [12] 2593 	addc	a,r6
      000DE7 FB               [12] 2594 	mov	r3,a
      000DE8 8F 04            [24] 2595 	mov	ar4,r7
      000DEA 74 0F            [12] 2596 	mov	a,#0x0f
      000DEC 2D               [12] 2597 	add	a,r5
      000DED FD               [12] 2598 	mov	r5,a
      000DEE E4               [12] 2599 	clr	a
      000DEF 3E               [12] 2600 	addc	a,r6
      000DF0 FE               [12] 2601 	mov	r6,a
      000DF1 8D 82            [24] 2602 	mov	dpl,r5
      000DF3 8E 83            [24] 2603 	mov	dph,r6
      000DF5 8F F0            [24] 2604 	mov	b,r7
      000DF7 12r00r00         [24] 2605 	lcall	__gptrget
      000DFA 8A 82            [24] 2606 	mov	dpl,r2
      000DFC 8B 83            [24] 2607 	mov	dph,r3
      000DFE 8C F0            [24] 2608 	mov	b,r4
      000E00 12r00r00         [24] 2609 	lcall	__gptrput
                                   2610 ;	src/aes.c:386: (*state)[3][3]=temp;
      000E03 90r00r00         [24] 2611 	mov	dptr,#_state
      000E06 E0               [24] 2612 	movx	a,@dptr
      000E07 FD               [12] 2613 	mov	r5,a
      000E08 A3               [24] 2614 	inc	dptr
      000E09 E0               [24] 2615 	movx	a,@dptr
      000E0A FE               [12] 2616 	mov	r6,a
      000E0B A3               [24] 2617 	inc	dptr
      000E0C E0               [24] 2618 	movx	a,@dptr
      000E0D FF               [12] 2619 	mov	r7,a
      000E0E 74 0F            [12] 2620 	mov	a,#0x0f
      000E10 2D               [12] 2621 	add	a,r5
      000E11 FD               [12] 2622 	mov	r5,a
      000E12 E4               [12] 2623 	clr	a
      000E13 3E               [12] 2624 	addc	a,r6
      000E14 FE               [12] 2625 	mov	r6,a
      000E15 90r00rC5         [24] 2626 	mov	dptr,#_InvShiftRows_temp_1_61
      000E18 E0               [24] 2627 	movx	a,@dptr
      000E19 8D 82            [24] 2628 	mov	dpl,r5
      000E1B 8E 83            [24] 2629 	mov	dph,r6
      000E1D 8F F0            [24] 2630 	mov	b,r7
      000E1F 02r00r00         [24] 2631 	ljmp	__gptrput
                                   2632 ;------------------------------------------------------------
                                   2633 ;Allocation info for local variables in function 'Cipher'
                                   2634 ;------------------------------------------------------------
                                   2635 ;round                     Allocated with name '_Cipher_round_1_63'
                                   2636 ;------------------------------------------------------------
                                   2637 ;	src/aes.c:391: static void Cipher(void)
                                   2638 ;	-----------------------------------------
                                   2639 ;	 function Cipher
                                   2640 ;	-----------------------------------------
      000E22                       2641 _Cipher:
                                   2642 ;	src/aes.c:396: AddRoundKey(0); 
      000E22 75 82 00         [24] 2643 	mov	dpl,#0x00
      000E25 12r03r6D         [24] 2644 	lcall	_AddRoundKey
                                   2645 ;	src/aes.c:401: for(round = 1; round < Nr; ++round)
      000E28 7F 01            [12] 2646 	mov	r7,#0x01
      000E2A                       2647 00102$:
                                   2648 ;	src/aes.c:403: SubBytes();
      000E2A C0 07            [24] 2649 	push	ar7
      000E2C 12r03rD7         [24] 2650 	lcall	_SubBytes
                                   2651 ;	src/aes.c:404: ShiftRows();
      000E2F 12r04r34         [24] 2652 	lcall	_ShiftRows
                                   2653 ;	src/aes.c:405: MixColumns();
      000E32 12r06r66         [24] 2654 	lcall	_MixColumns
      000E35 D0 07            [24] 2655 	pop	ar7
                                   2656 ;	src/aes.c:406: AddRoundKey(round);
      000E37 8F 82            [24] 2657 	mov	dpl,r7
      000E39 C0 07            [24] 2658 	push	ar7
      000E3B 12r03r6D         [24] 2659 	lcall	_AddRoundKey
      000E3E D0 07            [24] 2660 	pop	ar7
                                   2661 ;	src/aes.c:401: for(round = 1; round < Nr; ++round)
      000E40 0F               [12] 2662 	inc	r7
      000E41 BF 0A 00         [24] 2663 	cjne	r7,#0x0a,00113$
      000E44                       2664 00113$:
      000E44 40 E4            [24] 2665 	jc	00102$
                                   2666 ;	src/aes.c:411: SubBytes();
      000E46 12r03rD7         [24] 2667 	lcall	_SubBytes
                                   2668 ;	src/aes.c:412: ShiftRows();
      000E49 12r04r34         [24] 2669 	lcall	_ShiftRows
                                   2670 ;	src/aes.c:413: AddRoundKey(Nr);
      000E4C 75 82 0A         [24] 2671 	mov	dpl,#0x0a
      000E4F 02r03r6D         [24] 2672 	ljmp	_AddRoundKey
                                   2673 ;------------------------------------------------------------
                                   2674 ;Allocation info for local variables in function 'InvCipher'
                                   2675 ;------------------------------------------------------------
                                   2676 ;round                     Allocated with name '_InvCipher_round_1_66'
                                   2677 ;------------------------------------------------------------
                                   2678 ;	src/aes.c:416: static void InvCipher(void)
                                   2679 ;	-----------------------------------------
                                   2680 ;	 function InvCipher
                                   2681 ;	-----------------------------------------
      000E52                       2682 _InvCipher:
                                   2683 ;	src/aes.c:421: AddRoundKey(Nr); 
      000E52 75 82 0A         [24] 2684 	mov	dpl,#0x0a
      000E55 12r03r6D         [24] 2685 	lcall	_AddRoundKey
                                   2686 ;	src/aes.c:426: for(round=Nr-1;round>0;round--)
      000E58 7F 09            [12] 2687 	mov	r7,#0x09
      000E5A                       2688 00102$:
                                   2689 ;	src/aes.c:428: InvShiftRows();
      000E5A C0 07            [24] 2690 	push	ar7
      000E5C 12r0Cr0D         [24] 2691 	lcall	_InvShiftRows
                                   2692 ;	src/aes.c:429: InvSubBytes();
      000E5F 12r0BrB0         [24] 2693 	lcall	_InvSubBytes
      000E62 D0 07            [24] 2694 	pop	ar7
                                   2695 ;	src/aes.c:430: AddRoundKey(round);
      000E64 8F 82            [24] 2696 	mov	dpl,r7
      000E66 C0 07            [24] 2697 	push	ar7
      000E68 12r03r6D         [24] 2698 	lcall	_AddRoundKey
                                   2699 ;	src/aes.c:431: InvMixColumns();
      000E6B 12r08r87         [24] 2700 	lcall	_InvMixColumns
      000E6E D0 07            [24] 2701 	pop	ar7
                                   2702 ;	src/aes.c:426: for(round=Nr-1;round>0;round--)
      000E70 DF E8            [24] 2703 	djnz	r7,00102$
                                   2704 ;	src/aes.c:436: InvShiftRows();
      000E72 12r0Cr0D         [24] 2705 	lcall	_InvShiftRows
                                   2706 ;	src/aes.c:437: InvSubBytes();
      000E75 12r0BrB0         [24] 2707 	lcall	_InvSubBytes
                                   2708 ;	src/aes.c:438: AddRoundKey(0);
      000E78 75 82 00         [24] 2709 	mov	dpl,#0x00
      000E7B 02r03r6D         [24] 2710 	ljmp	_AddRoundKey
                                   2711 ;------------------------------------------------------------
                                   2712 ;Allocation info for local variables in function 'BlockCopy'
                                   2713 ;------------------------------------------------------------
                                   2714 ;input                     Allocated with name '_BlockCopy_PARM_2'
                                   2715 ;output                    Allocated with name '_BlockCopy_output_1_68'
                                   2716 ;i                         Allocated with name '_BlockCopy_i_1_69'
                                   2717 ;sloc0                     Allocated with name '_BlockCopy_sloc0_1_0'
                                   2718 ;------------------------------------------------------------
                                   2719 ;	src/aes.c:441: static void BlockCopy(uint8_t* output, const uint8_t* input)
                                   2720 ;	-----------------------------------------
                                   2721 ;	 function BlockCopy
                                   2722 ;	-----------------------------------------
      000E7E                       2723 _BlockCopy:
      000E7E AF F0            [24] 2724 	mov	r7,b
      000E80 AE 83            [24] 2725 	mov	r6,dph
      000E82 E5 82            [12] 2726 	mov	a,dpl
      000E84 90r00rC9         [24] 2727 	mov	dptr,#_BlockCopy_output_1_68
      000E87 F0               [24] 2728 	movx	@dptr,a
      000E88 EE               [12] 2729 	mov	a,r6
      000E89 A3               [24] 2730 	inc	dptr
      000E8A F0               [24] 2731 	movx	@dptr,a
      000E8B EF               [12] 2732 	mov	a,r7
      000E8C A3               [24] 2733 	inc	dptr
      000E8D F0               [24] 2734 	movx	@dptr,a
                                   2735 ;	src/aes.c:444: for (i=0;i<KEYLEN;++i)
      000E8E 90r00rC9         [24] 2736 	mov	dptr,#_BlockCopy_output_1_68
      000E91 E0               [24] 2737 	movx	a,@dptr
      000E92 FD               [12] 2738 	mov	r5,a
      000E93 A3               [24] 2739 	inc	dptr
      000E94 E0               [24] 2740 	movx	a,@dptr
      000E95 FE               [12] 2741 	mov	r6,a
      000E96 A3               [24] 2742 	inc	dptr
      000E97 E0               [24] 2743 	movx	a,@dptr
      000E98 FF               [12] 2744 	mov	r7,a
      000E99 90r00rC6         [24] 2745 	mov	dptr,#_BlockCopy_PARM_2
      000E9C E0               [24] 2746 	movx	a,@dptr
      000E9D F5*00            [12] 2747 	mov	_BlockCopy_sloc0_1_0,a
      000E9F A3               [24] 2748 	inc	dptr
      000EA0 E0               [24] 2749 	movx	a,@dptr
      000EA1 F5*01            [12] 2750 	mov	(_BlockCopy_sloc0_1_0 + 1),a
      000EA3 A3               [24] 2751 	inc	dptr
      000EA4 E0               [24] 2752 	movx	a,@dptr
      000EA5 F5*02            [12] 2753 	mov	(_BlockCopy_sloc0_1_0 + 2),a
      000EA7 79 00            [12] 2754 	mov	r1,#0x00
      000EA9                       2755 00102$:
                                   2756 ;	src/aes.c:446: output[i] = input[i];
      000EA9 E9               [12] 2757 	mov	a,r1
      000EAA 2D               [12] 2758 	add	a,r5
      000EAB F8               [12] 2759 	mov	r0,a
      000EAC E4               [12] 2760 	clr	a
      000EAD 3E               [12] 2761 	addc	a,r6
      000EAE FB               [12] 2762 	mov	r3,a
      000EAF 8F 04            [24] 2763 	mov	ar4,r7
      000EB1 C0 05            [24] 2764 	push	ar5
      000EB3 C0 06            [24] 2765 	push	ar6
      000EB5 C0 07            [24] 2766 	push	ar7
      000EB7 E9               [12] 2767 	mov	a,r1
      000EB8 25*00            [12] 2768 	add	a,_BlockCopy_sloc0_1_0
      000EBA FA               [12] 2769 	mov	r2,a
      000EBB E4               [12] 2770 	clr	a
      000EBC 35*01            [12] 2771 	addc	a,(_BlockCopy_sloc0_1_0 + 1)
      000EBE FE               [12] 2772 	mov	r6,a
      000EBF AF*02            [24] 2773 	mov	r7,(_BlockCopy_sloc0_1_0 + 2)
      000EC1 8A 82            [24] 2774 	mov	dpl,r2
      000EC3 8E 83            [24] 2775 	mov	dph,r6
      000EC5 8F F0            [24] 2776 	mov	b,r7
      000EC7 12r00r00         [24] 2777 	lcall	__gptrget
      000ECA FA               [12] 2778 	mov	r2,a
      000ECB 88 82            [24] 2779 	mov	dpl,r0
      000ECD 8B 83            [24] 2780 	mov	dph,r3
      000ECF 8C F0            [24] 2781 	mov	b,r4
      000ED1 12r00r00         [24] 2782 	lcall	__gptrput
                                   2783 ;	src/aes.c:444: for (i=0;i<KEYLEN;++i)
      000ED4 09               [12] 2784 	inc	r1
      000ED5 B9 10 00         [24] 2785 	cjne	r1,#0x10,00110$
      000ED8                       2786 00110$:
      000ED8 D0 07            [24] 2787 	pop	ar7
      000EDA D0 06            [24] 2788 	pop	ar6
      000EDC D0 05            [24] 2789 	pop	ar5
      000EDE 40 C9            [24] 2790 	jc	00102$
      000EE0 22               [24] 2791 	ret
                                   2792 ;------------------------------------------------------------
                                   2793 ;Allocation info for local variables in function 'AES128_ECB_encrypt'
                                   2794 ;------------------------------------------------------------
                                   2795 ;key                       Allocated with name '_AES128_ECB_encrypt_PARM_2'
                                   2796 ;output                    Allocated with name '_AES128_ECB_encrypt_PARM_3'
                                   2797 ;input                     Allocated with name '_AES128_ECB_encrypt_input_1_71'
                                   2798 ;------------------------------------------------------------
                                   2799 ;	src/aes.c:458: void AES128_ECB_encrypt(const uint8_t* input, const uint8_t* key, uint8_t* output)
                                   2800 ;	-----------------------------------------
                                   2801 ;	 function AES128_ECB_encrypt
                                   2802 ;	-----------------------------------------
      000EE1                       2803 _AES128_ECB_encrypt:
      000EE1 AF F0            [24] 2804 	mov	r7,b
      000EE3 AE 83            [24] 2805 	mov	r6,dph
      000EE5 E5 82            [12] 2806 	mov	a,dpl
      000EE7 90r00rD2         [24] 2807 	mov	dptr,#_AES128_ECB_encrypt_input_1_71
      000EEA F0               [24] 2808 	movx	@dptr,a
      000EEB EE               [12] 2809 	mov	a,r6
      000EEC A3               [24] 2810 	inc	dptr
      000EED F0               [24] 2811 	movx	@dptr,a
      000EEE EF               [12] 2812 	mov	a,r7
      000EEF A3               [24] 2813 	inc	dptr
      000EF0 F0               [24] 2814 	movx	@dptr,a
                                   2815 ;	src/aes.c:461: BlockCopy(output, input);
      000EF1 90r00rCF         [24] 2816 	mov	dptr,#_AES128_ECB_encrypt_PARM_3
      000EF4 E0               [24] 2817 	movx	a,@dptr
      000EF5 FD               [12] 2818 	mov	r5,a
      000EF6 A3               [24] 2819 	inc	dptr
      000EF7 E0               [24] 2820 	movx	a,@dptr
      000EF8 FE               [12] 2821 	mov	r6,a
      000EF9 A3               [24] 2822 	inc	dptr
      000EFA E0               [24] 2823 	movx	a,@dptr
      000EFB FF               [12] 2824 	mov	r7,a
      000EFC 90r00rD2         [24] 2825 	mov	dptr,#_AES128_ECB_encrypt_input_1_71
      000EFF E0               [24] 2826 	movx	a,@dptr
      000F00 FA               [12] 2827 	mov	r2,a
      000F01 A3               [24] 2828 	inc	dptr
      000F02 E0               [24] 2829 	movx	a,@dptr
      000F03 FB               [12] 2830 	mov	r3,a
      000F04 A3               [24] 2831 	inc	dptr
      000F05 E0               [24] 2832 	movx	a,@dptr
      000F06 FC               [12] 2833 	mov	r4,a
      000F07 90r00rC6         [24] 2834 	mov	dptr,#_BlockCopy_PARM_2
      000F0A EA               [12] 2835 	mov	a,r2
      000F0B F0               [24] 2836 	movx	@dptr,a
      000F0C EB               [12] 2837 	mov	a,r3
      000F0D A3               [24] 2838 	inc	dptr
      000F0E F0               [24] 2839 	movx	@dptr,a
      000F0F EC               [12] 2840 	mov	a,r4
      000F10 A3               [24] 2841 	inc	dptr
      000F11 F0               [24] 2842 	movx	@dptr,a
      000F12 8D 82            [24] 2843 	mov	dpl,r5
      000F14 8E 83            [24] 2844 	mov	dph,r6
      000F16 8F F0            [24] 2845 	mov	b,r7
      000F18 12r0Er7E         [24] 2846 	lcall	_BlockCopy
                                   2847 ;	src/aes.c:462: state = (state_t*)output;
      000F1B 90r00rCF         [24] 2848 	mov	dptr,#_AES128_ECB_encrypt_PARM_3
      000F1E E0               [24] 2849 	movx	a,@dptr
      000F1F FD               [12] 2850 	mov	r5,a
      000F20 A3               [24] 2851 	inc	dptr
      000F21 E0               [24] 2852 	movx	a,@dptr
      000F22 FE               [12] 2853 	mov	r6,a
      000F23 A3               [24] 2854 	inc	dptr
      000F24 E0               [24] 2855 	movx	a,@dptr
      000F25 FF               [12] 2856 	mov	r7,a
      000F26 90r00r00         [24] 2857 	mov	dptr,#_state
      000F29 ED               [12] 2858 	mov	a,r5
      000F2A F0               [24] 2859 	movx	@dptr,a
      000F2B EE               [12] 2860 	mov	a,r6
      000F2C A3               [24] 2861 	inc	dptr
      000F2D F0               [24] 2862 	movx	@dptr,a
      000F2E EF               [12] 2863 	mov	a,r7
      000F2F A3               [24] 2864 	inc	dptr
      000F30 F0               [24] 2865 	movx	@dptr,a
                                   2866 ;	src/aes.c:464: Key = key;
      000F31 90r00rCC         [24] 2867 	mov	dptr,#_AES128_ECB_encrypt_PARM_2
      000F34 E0               [24] 2868 	movx	a,@dptr
      000F35 FD               [12] 2869 	mov	r5,a
      000F36 A3               [24] 2870 	inc	dptr
      000F37 E0               [24] 2871 	movx	a,@dptr
      000F38 FE               [12] 2872 	mov	r6,a
      000F39 A3               [24] 2873 	inc	dptr
      000F3A E0               [24] 2874 	movx	a,@dptr
      000F3B FF               [12] 2875 	mov	r7,a
      000F3C 90r00rB3         [24] 2876 	mov	dptr,#_Key
      000F3F ED               [12] 2877 	mov	a,r5
      000F40 F0               [24] 2878 	movx	@dptr,a
      000F41 EE               [12] 2879 	mov	a,r6
      000F42 A3               [24] 2880 	inc	dptr
      000F43 F0               [24] 2881 	movx	@dptr,a
      000F44 EF               [12] 2882 	mov	a,r7
      000F45 A3               [24] 2883 	inc	dptr
      000F46 F0               [24] 2884 	movx	@dptr,a
                                   2885 ;	src/aes.c:465: KeyExpansion();
      000F47 12r00r1C         [24] 2886 	lcall	_KeyExpansion
                                   2887 ;	src/aes.c:468: Cipher();
      000F4A 02r0Er22         [24] 2888 	ljmp	_Cipher
                                   2889 ;------------------------------------------------------------
                                   2890 ;Allocation info for local variables in function 'AES128_ECB_decrypt'
                                   2891 ;------------------------------------------------------------
                                   2892 ;key                       Allocated with name '_AES128_ECB_decrypt_PARM_2'
                                   2893 ;output                    Allocated with name '_AES128_ECB_decrypt_PARM_3'
                                   2894 ;input                     Allocated with name '_AES128_ECB_decrypt_input_1_73'
                                   2895 ;------------------------------------------------------------
                                   2896 ;	src/aes.c:471: void AES128_ECB_decrypt(const uint8_t* input, const uint8_t* key, uint8_t *output)
                                   2897 ;	-----------------------------------------
                                   2898 ;	 function AES128_ECB_decrypt
                                   2899 ;	-----------------------------------------
      000F4D                       2900 _AES128_ECB_decrypt:
      000F4D AF F0            [24] 2901 	mov	r7,b
      000F4F AE 83            [24] 2902 	mov	r6,dph
      000F51 E5 82            [12] 2903 	mov	a,dpl
      000F53 90r00rDB         [24] 2904 	mov	dptr,#_AES128_ECB_decrypt_input_1_73
      000F56 F0               [24] 2905 	movx	@dptr,a
      000F57 EE               [12] 2906 	mov	a,r6
      000F58 A3               [24] 2907 	inc	dptr
      000F59 F0               [24] 2908 	movx	@dptr,a
      000F5A EF               [12] 2909 	mov	a,r7
      000F5B A3               [24] 2910 	inc	dptr
      000F5C F0               [24] 2911 	movx	@dptr,a
                                   2912 ;	src/aes.c:474: BlockCopy(output, input);
      000F5D 90r00rD8         [24] 2913 	mov	dptr,#_AES128_ECB_decrypt_PARM_3
      000F60 E0               [24] 2914 	movx	a,@dptr
      000F61 FD               [12] 2915 	mov	r5,a
      000F62 A3               [24] 2916 	inc	dptr
      000F63 E0               [24] 2917 	movx	a,@dptr
      000F64 FE               [12] 2918 	mov	r6,a
      000F65 A3               [24] 2919 	inc	dptr
      000F66 E0               [24] 2920 	movx	a,@dptr
      000F67 FF               [12] 2921 	mov	r7,a
      000F68 90r00rDB         [24] 2922 	mov	dptr,#_AES128_ECB_decrypt_input_1_73
      000F6B E0               [24] 2923 	movx	a,@dptr
      000F6C FA               [12] 2924 	mov	r2,a
      000F6D A3               [24] 2925 	inc	dptr
      000F6E E0               [24] 2926 	movx	a,@dptr
      000F6F FB               [12] 2927 	mov	r3,a
      000F70 A3               [24] 2928 	inc	dptr
      000F71 E0               [24] 2929 	movx	a,@dptr
      000F72 FC               [12] 2930 	mov	r4,a
      000F73 90r00rC6         [24] 2931 	mov	dptr,#_BlockCopy_PARM_2
      000F76 EA               [12] 2932 	mov	a,r2
      000F77 F0               [24] 2933 	movx	@dptr,a
      000F78 EB               [12] 2934 	mov	a,r3
      000F79 A3               [24] 2935 	inc	dptr
      000F7A F0               [24] 2936 	movx	@dptr,a
      000F7B EC               [12] 2937 	mov	a,r4
      000F7C A3               [24] 2938 	inc	dptr
      000F7D F0               [24] 2939 	movx	@dptr,a
      000F7E 8D 82            [24] 2940 	mov	dpl,r5
      000F80 8E 83            [24] 2941 	mov	dph,r6
      000F82 8F F0            [24] 2942 	mov	b,r7
      000F84 12r0Er7E         [24] 2943 	lcall	_BlockCopy
                                   2944 ;	src/aes.c:475: state = (state_t*)output;
      000F87 90r00rD8         [24] 2945 	mov	dptr,#_AES128_ECB_decrypt_PARM_3
      000F8A E0               [24] 2946 	movx	a,@dptr
      000F8B FD               [12] 2947 	mov	r5,a
      000F8C A3               [24] 2948 	inc	dptr
      000F8D E0               [24] 2949 	movx	a,@dptr
      000F8E FE               [12] 2950 	mov	r6,a
      000F8F A3               [24] 2951 	inc	dptr
      000F90 E0               [24] 2952 	movx	a,@dptr
      000F91 FF               [12] 2953 	mov	r7,a
      000F92 90r00r00         [24] 2954 	mov	dptr,#_state
      000F95 ED               [12] 2955 	mov	a,r5
      000F96 F0               [24] 2956 	movx	@dptr,a
      000F97 EE               [12] 2957 	mov	a,r6
      000F98 A3               [24] 2958 	inc	dptr
      000F99 F0               [24] 2959 	movx	@dptr,a
      000F9A EF               [12] 2960 	mov	a,r7
      000F9B A3               [24] 2961 	inc	dptr
      000F9C F0               [24] 2962 	movx	@dptr,a
                                   2963 ;	src/aes.c:478: Key = key;
      000F9D 90r00rD5         [24] 2964 	mov	dptr,#_AES128_ECB_decrypt_PARM_2
      000FA0 E0               [24] 2965 	movx	a,@dptr
      000FA1 FD               [12] 2966 	mov	r5,a
      000FA2 A3               [24] 2967 	inc	dptr
      000FA3 E0               [24] 2968 	movx	a,@dptr
      000FA4 FE               [12] 2969 	mov	r6,a
      000FA5 A3               [24] 2970 	inc	dptr
      000FA6 E0               [24] 2971 	movx	a,@dptr
      000FA7 FF               [12] 2972 	mov	r7,a
      000FA8 90r00rB3         [24] 2973 	mov	dptr,#_Key
      000FAB ED               [12] 2974 	mov	a,r5
      000FAC F0               [24] 2975 	movx	@dptr,a
      000FAD EE               [12] 2976 	mov	a,r6
      000FAE A3               [24] 2977 	inc	dptr
      000FAF F0               [24] 2978 	movx	@dptr,a
      000FB0 EF               [12] 2979 	mov	a,r7
      000FB1 A3               [24] 2980 	inc	dptr
      000FB2 F0               [24] 2981 	movx	@dptr,a
                                   2982 ;	src/aes.c:479: KeyExpansion();
      000FB3 12r00r1C         [24] 2983 	lcall	_KeyExpansion
                                   2984 ;	src/aes.c:481: InvCipher();
      000FB6 02r0Er52         [24] 2985 	ljmp	_InvCipher
                                   2986 	.area CSEG    (CODE)
                                   2987 	.area CONST   (CODE)
      000000                       2988 _sbox:
      000000 63                    2989 	.db #0x63	; 99	'c'
      000001 7C                    2990 	.db #0x7c	; 124
      000002 77                    2991 	.db #0x77	; 119	'w'
      000003 7B                    2992 	.db #0x7b	; 123
      000004 F2                    2993 	.db #0xf2	; 242
      000005 6B                    2994 	.db #0x6b	; 107	'k'
      000006 6F                    2995 	.db #0x6f	; 111	'o'
      000007 C5                    2996 	.db #0xc5	; 197
      000008 30                    2997 	.db #0x30	; 48	'0'
      000009 01                    2998 	.db #0x01	; 1
      00000A 67                    2999 	.db #0x67	; 103	'g'
      00000B 2B                    3000 	.db #0x2b	; 43
      00000C FE                    3001 	.db #0xfe	; 254
      00000D D7                    3002 	.db #0xd7	; 215
      00000E AB                    3003 	.db #0xab	; 171
      00000F 76                    3004 	.db #0x76	; 118	'v'
      000010 CA                    3005 	.db #0xca	; 202
      000011 82                    3006 	.db #0x82	; 130
      000012 C9                    3007 	.db #0xc9	; 201
      000013 7D                    3008 	.db #0x7d	; 125
      000014 FA                    3009 	.db #0xfa	; 250
      000015 59                    3010 	.db #0x59	; 89	'Y'
      000016 47                    3011 	.db #0x47	; 71	'G'
      000017 F0                    3012 	.db #0xf0	; 240
      000018 AD                    3013 	.db #0xad	; 173
      000019 D4                    3014 	.db #0xd4	; 212
      00001A A2                    3015 	.db #0xa2	; 162
      00001B AF                    3016 	.db #0xaf	; 175
      00001C 9C                    3017 	.db #0x9c	; 156
      00001D A4                    3018 	.db #0xa4	; 164
      00001E 72                    3019 	.db #0x72	; 114	'r'
      00001F C0                    3020 	.db #0xc0	; 192
      000020 B7                    3021 	.db #0xb7	; 183
      000021 FD                    3022 	.db #0xfd	; 253
      000022 93                    3023 	.db #0x93	; 147
      000023 26                    3024 	.db #0x26	; 38
      000024 36                    3025 	.db #0x36	; 54	'6'
      000025 3F                    3026 	.db #0x3f	; 63
      000026 F7                    3027 	.db #0xf7	; 247
      000027 CC                    3028 	.db #0xcc	; 204
      000028 34                    3029 	.db #0x34	; 52	'4'
      000029 A5                    3030 	.db #0xa5	; 165
      00002A E5                    3031 	.db #0xe5	; 229
      00002B F1                    3032 	.db #0xf1	; 241
      00002C 71                    3033 	.db #0x71	; 113	'q'
      00002D D8                    3034 	.db #0xd8	; 216
      00002E 31                    3035 	.db #0x31	; 49	'1'
      00002F 15                    3036 	.db #0x15	; 21
      000030 04                    3037 	.db #0x04	; 4
      000031 C7                    3038 	.db #0xc7	; 199
      000032 23                    3039 	.db #0x23	; 35
      000033 C3                    3040 	.db #0xc3	; 195
      000034 18                    3041 	.db #0x18	; 24
      000035 96                    3042 	.db #0x96	; 150
      000036 05                    3043 	.db #0x05	; 5
      000037 9A                    3044 	.db #0x9a	; 154
      000038 07                    3045 	.db #0x07	; 7
      000039 12                    3046 	.db #0x12	; 18
      00003A 80                    3047 	.db #0x80	; 128
      00003B E2                    3048 	.db #0xe2	; 226
      00003C EB                    3049 	.db #0xeb	; 235
      00003D 27                    3050 	.db #0x27	; 39
      00003E B2                    3051 	.db #0xb2	; 178
      00003F 75                    3052 	.db #0x75	; 117	'u'
      000040 09                    3053 	.db #0x09	; 9
      000041 83                    3054 	.db #0x83	; 131
      000042 2C                    3055 	.db #0x2c	; 44
      000043 1A                    3056 	.db #0x1a	; 26
      000044 1B                    3057 	.db #0x1b	; 27
      000045 6E                    3058 	.db #0x6e	; 110	'n'
      000046 5A                    3059 	.db #0x5a	; 90	'Z'
      000047 A0                    3060 	.db #0xa0	; 160
      000048 52                    3061 	.db #0x52	; 82	'R'
      000049 3B                    3062 	.db #0x3b	; 59
      00004A D6                    3063 	.db #0xd6	; 214
      00004B B3                    3064 	.db #0xb3	; 179
      00004C 29                    3065 	.db #0x29	; 41
      00004D E3                    3066 	.db #0xe3	; 227
      00004E 2F                    3067 	.db #0x2f	; 47
      00004F 84                    3068 	.db #0x84	; 132
      000050 53                    3069 	.db #0x53	; 83	'S'
      000051 D1                    3070 	.db #0xd1	; 209
      000052 00                    3071 	.db #0x00	; 0
      000053 ED                    3072 	.db #0xed	; 237
      000054 20                    3073 	.db #0x20	; 32
      000055 FC                    3074 	.db #0xfc	; 252
      000056 B1                    3075 	.db #0xb1	; 177
      000057 5B                    3076 	.db #0x5b	; 91
      000058 6A                    3077 	.db #0x6a	; 106	'j'
      000059 CB                    3078 	.db #0xcb	; 203
      00005A BE                    3079 	.db #0xbe	; 190
      00005B 39                    3080 	.db #0x39	; 57	'9'
      00005C 4A                    3081 	.db #0x4a	; 74	'J'
      00005D 4C                    3082 	.db #0x4c	; 76	'L'
      00005E 58                    3083 	.db #0x58	; 88	'X'
      00005F CF                    3084 	.db #0xcf	; 207
      000060 D0                    3085 	.db #0xd0	; 208
      000061 EF                    3086 	.db #0xef	; 239
      000062 AA                    3087 	.db #0xaa	; 170
      000063 FB                    3088 	.db #0xfb	; 251
      000064 43                    3089 	.db #0x43	; 67	'C'
      000065 4D                    3090 	.db #0x4d	; 77	'M'
      000066 33                    3091 	.db #0x33	; 51	'3'
      000067 85                    3092 	.db #0x85	; 133
      000068 45                    3093 	.db #0x45	; 69	'E'
      000069 F9                    3094 	.db #0xf9	; 249
      00006A 02                    3095 	.db #0x02	; 2
      00006B 7F                    3096 	.db #0x7f	; 127
      00006C 50                    3097 	.db #0x50	; 80	'P'
      00006D 3C                    3098 	.db #0x3c	; 60
      00006E 9F                    3099 	.db #0x9f	; 159
      00006F A8                    3100 	.db #0xa8	; 168
      000070 51                    3101 	.db #0x51	; 81	'Q'
      000071 A3                    3102 	.db #0xa3	; 163
      000072 40                    3103 	.db #0x40	; 64
      000073 8F                    3104 	.db #0x8f	; 143
      000074 92                    3105 	.db #0x92	; 146
      000075 9D                    3106 	.db #0x9d	; 157
      000076 38                    3107 	.db #0x38	; 56	'8'
      000077 F5                    3108 	.db #0xf5	; 245
      000078 BC                    3109 	.db #0xbc	; 188
      000079 B6                    3110 	.db #0xb6	; 182
      00007A DA                    3111 	.db #0xda	; 218
      00007B 21                    3112 	.db #0x21	; 33
      00007C 10                    3113 	.db #0x10	; 16
      00007D FF                    3114 	.db #0xff	; 255
      00007E F3                    3115 	.db #0xf3	; 243
      00007F D2                    3116 	.db #0xd2	; 210
      000080 CD                    3117 	.db #0xcd	; 205
      000081 0C                    3118 	.db #0x0c	; 12
      000082 13                    3119 	.db #0x13	; 19
      000083 EC                    3120 	.db #0xec	; 236
      000084 5F                    3121 	.db #0x5f	; 95
      000085 97                    3122 	.db #0x97	; 151
      000086 44                    3123 	.db #0x44	; 68	'D'
      000087 17                    3124 	.db #0x17	; 23
      000088 C4                    3125 	.db #0xc4	; 196
      000089 A7                    3126 	.db #0xa7	; 167
      00008A 7E                    3127 	.db #0x7e	; 126
      00008B 3D                    3128 	.db #0x3d	; 61
      00008C 64                    3129 	.db #0x64	; 100	'd'
      00008D 5D                    3130 	.db #0x5d	; 93
      00008E 19                    3131 	.db #0x19	; 25
      00008F 73                    3132 	.db #0x73	; 115	's'
      000090 60                    3133 	.db #0x60	; 96
      000091 81                    3134 	.db #0x81	; 129
      000092 4F                    3135 	.db #0x4f	; 79	'O'
      000093 DC                    3136 	.db #0xdc	; 220
      000094 22                    3137 	.db #0x22	; 34
      000095 2A                    3138 	.db #0x2a	; 42
      000096 90                    3139 	.db #0x90	; 144
      000097 88                    3140 	.db #0x88	; 136
      000098 46                    3141 	.db #0x46	; 70	'F'
      000099 EE                    3142 	.db #0xee	; 238
      00009A B8                    3143 	.db #0xb8	; 184
      00009B 14                    3144 	.db #0x14	; 20
      00009C DE                    3145 	.db #0xde	; 222
      00009D 5E                    3146 	.db #0x5e	; 94
      00009E 0B                    3147 	.db #0x0b	; 11
      00009F DB                    3148 	.db #0xdb	; 219
      0000A0 E0                    3149 	.db #0xe0	; 224
      0000A1 32                    3150 	.db #0x32	; 50	'2'
      0000A2 3A                    3151 	.db #0x3a	; 58
      0000A3 0A                    3152 	.db #0x0a	; 10
      0000A4 49                    3153 	.db #0x49	; 73	'I'
      0000A5 06                    3154 	.db #0x06	; 6
      0000A6 24                    3155 	.db #0x24	; 36
      0000A7 5C                    3156 	.db #0x5c	; 92
      0000A8 C2                    3157 	.db #0xc2	; 194
      0000A9 D3                    3158 	.db #0xd3	; 211
      0000AA AC                    3159 	.db #0xac	; 172
      0000AB 62                    3160 	.db #0x62	; 98	'b'
      0000AC 91                    3161 	.db #0x91	; 145
      0000AD 95                    3162 	.db #0x95	; 149
      0000AE E4                    3163 	.db #0xe4	; 228
      0000AF 79                    3164 	.db #0x79	; 121	'y'
      0000B0 E7                    3165 	.db #0xe7	; 231
      0000B1 C8                    3166 	.db #0xc8	; 200
      0000B2 37                    3167 	.db #0x37	; 55	'7'
      0000B3 6D                    3168 	.db #0x6d	; 109	'm'
      0000B4 8D                    3169 	.db #0x8d	; 141
      0000B5 D5                    3170 	.db #0xd5	; 213
      0000B6 4E                    3171 	.db #0x4e	; 78	'N'
      0000B7 A9                    3172 	.db #0xa9	; 169
      0000B8 6C                    3173 	.db #0x6c	; 108	'l'
      0000B9 56                    3174 	.db #0x56	; 86	'V'
      0000BA F4                    3175 	.db #0xf4	; 244
      0000BB EA                    3176 	.db #0xea	; 234
      0000BC 65                    3177 	.db #0x65	; 101	'e'
      0000BD 7A                    3178 	.db #0x7a	; 122	'z'
      0000BE AE                    3179 	.db #0xae	; 174
      0000BF 08                    3180 	.db #0x08	; 8
      0000C0 BA                    3181 	.db #0xba	; 186
      0000C1 78                    3182 	.db #0x78	; 120	'x'
      0000C2 25                    3183 	.db #0x25	; 37
      0000C3 2E                    3184 	.db #0x2e	; 46
      0000C4 1C                    3185 	.db #0x1c	; 28
      0000C5 A6                    3186 	.db #0xa6	; 166
      0000C6 B4                    3187 	.db #0xb4	; 180
      0000C7 C6                    3188 	.db #0xc6	; 198
      0000C8 E8                    3189 	.db #0xe8	; 232
      0000C9 DD                    3190 	.db #0xdd	; 221
      0000CA 74                    3191 	.db #0x74	; 116	't'
      0000CB 1F                    3192 	.db #0x1f	; 31
      0000CC 4B                    3193 	.db #0x4b	; 75	'K'
      0000CD BD                    3194 	.db #0xbd	; 189
      0000CE 8B                    3195 	.db #0x8b	; 139
      0000CF 8A                    3196 	.db #0x8a	; 138
      0000D0 70                    3197 	.db #0x70	; 112	'p'
      0000D1 3E                    3198 	.db #0x3e	; 62
      0000D2 B5                    3199 	.db #0xb5	; 181
      0000D3 66                    3200 	.db #0x66	; 102	'f'
      0000D4 48                    3201 	.db #0x48	; 72	'H'
      0000D5 03                    3202 	.db #0x03	; 3
      0000D6 F6                    3203 	.db #0xf6	; 246
      0000D7 0E                    3204 	.db #0x0e	; 14
      0000D8 61                    3205 	.db #0x61	; 97	'a'
      0000D9 35                    3206 	.db #0x35	; 53	'5'
      0000DA 57                    3207 	.db #0x57	; 87	'W'
      0000DB B9                    3208 	.db #0xb9	; 185
      0000DC 86                    3209 	.db #0x86	; 134
      0000DD C1                    3210 	.db #0xc1	; 193
      0000DE 1D                    3211 	.db #0x1d	; 29
      0000DF 9E                    3212 	.db #0x9e	; 158
      0000E0 E1                    3213 	.db #0xe1	; 225
      0000E1 F8                    3214 	.db #0xf8	; 248
      0000E2 98                    3215 	.db #0x98	; 152
      0000E3 11                    3216 	.db #0x11	; 17
      0000E4 69                    3217 	.db #0x69	; 105	'i'
      0000E5 D9                    3218 	.db #0xd9	; 217
      0000E6 8E                    3219 	.db #0x8e	; 142
      0000E7 94                    3220 	.db #0x94	; 148
      0000E8 9B                    3221 	.db #0x9b	; 155
      0000E9 1E                    3222 	.db #0x1e	; 30
      0000EA 87                    3223 	.db #0x87	; 135
      0000EB E9                    3224 	.db #0xe9	; 233
      0000EC CE                    3225 	.db #0xce	; 206
      0000ED 55                    3226 	.db #0x55	; 85	'U'
      0000EE 28                    3227 	.db #0x28	; 40
      0000EF DF                    3228 	.db #0xdf	; 223
      0000F0 8C                    3229 	.db #0x8c	; 140
      0000F1 A1                    3230 	.db #0xa1	; 161
      0000F2 89                    3231 	.db #0x89	; 137
      0000F3 0D                    3232 	.db #0x0d	; 13
      0000F4 BF                    3233 	.db #0xbf	; 191
      0000F5 E6                    3234 	.db #0xe6	; 230
      0000F6 42                    3235 	.db #0x42	; 66	'B'
      0000F7 68                    3236 	.db #0x68	; 104	'h'
      0000F8 41                    3237 	.db #0x41	; 65	'A'
      0000F9 99                    3238 	.db #0x99	; 153
      0000FA 2D                    3239 	.db #0x2d	; 45
      0000FB 0F                    3240 	.db #0x0f	; 15
      0000FC B0                    3241 	.db #0xb0	; 176
      0000FD 54                    3242 	.db #0x54	; 84	'T'
      0000FE BB                    3243 	.db #0xbb	; 187
      0000FF 16                    3244 	.db #0x16	; 22
      000100                       3245 _rsbox:
      000100 52                    3246 	.db #0x52	; 82	'R'
      000101 09                    3247 	.db #0x09	; 9
      000102 6A                    3248 	.db #0x6a	; 106	'j'
      000103 D5                    3249 	.db #0xd5	; 213
      000104 30                    3250 	.db #0x30	; 48	'0'
      000105 36                    3251 	.db #0x36	; 54	'6'
      000106 A5                    3252 	.db #0xa5	; 165
      000107 38                    3253 	.db #0x38	; 56	'8'
      000108 BF                    3254 	.db #0xbf	; 191
      000109 40                    3255 	.db #0x40	; 64
      00010A A3                    3256 	.db #0xa3	; 163
      00010B 9E                    3257 	.db #0x9e	; 158
      00010C 81                    3258 	.db #0x81	; 129
      00010D F3                    3259 	.db #0xf3	; 243
      00010E D7                    3260 	.db #0xd7	; 215
      00010F FB                    3261 	.db #0xfb	; 251
      000110 7C                    3262 	.db #0x7c	; 124
      000111 E3                    3263 	.db #0xe3	; 227
      000112 39                    3264 	.db #0x39	; 57	'9'
      000113 82                    3265 	.db #0x82	; 130
      000114 9B                    3266 	.db #0x9b	; 155
      000115 2F                    3267 	.db #0x2f	; 47
      000116 FF                    3268 	.db #0xff	; 255
      000117 87                    3269 	.db #0x87	; 135
      000118 34                    3270 	.db #0x34	; 52	'4'
      000119 8E                    3271 	.db #0x8e	; 142
      00011A 43                    3272 	.db #0x43	; 67	'C'
      00011B 44                    3273 	.db #0x44	; 68	'D'
      00011C C4                    3274 	.db #0xc4	; 196
      00011D DE                    3275 	.db #0xde	; 222
      00011E E9                    3276 	.db #0xe9	; 233
      00011F CB                    3277 	.db #0xcb	; 203
      000120 54                    3278 	.db #0x54	; 84	'T'
      000121 7B                    3279 	.db #0x7b	; 123
      000122 94                    3280 	.db #0x94	; 148
      000123 32                    3281 	.db #0x32	; 50	'2'
      000124 A6                    3282 	.db #0xa6	; 166
      000125 C2                    3283 	.db #0xc2	; 194
      000126 23                    3284 	.db #0x23	; 35
      000127 3D                    3285 	.db #0x3d	; 61
      000128 EE                    3286 	.db #0xee	; 238
      000129 4C                    3287 	.db #0x4c	; 76	'L'
      00012A 95                    3288 	.db #0x95	; 149
      00012B 0B                    3289 	.db #0x0b	; 11
      00012C 42                    3290 	.db #0x42	; 66	'B'
      00012D FA                    3291 	.db #0xfa	; 250
      00012E C3                    3292 	.db #0xc3	; 195
      00012F 4E                    3293 	.db #0x4e	; 78	'N'
      000130 08                    3294 	.db #0x08	; 8
      000131 2E                    3295 	.db #0x2e	; 46
      000132 A1                    3296 	.db #0xa1	; 161
      000133 66                    3297 	.db #0x66	; 102	'f'
      000134 28                    3298 	.db #0x28	; 40
      000135 D9                    3299 	.db #0xd9	; 217
      000136 24                    3300 	.db #0x24	; 36
      000137 B2                    3301 	.db #0xb2	; 178
      000138 76                    3302 	.db #0x76	; 118	'v'
      000139 5B                    3303 	.db #0x5b	; 91
      00013A A2                    3304 	.db #0xa2	; 162
      00013B 49                    3305 	.db #0x49	; 73	'I'
      00013C 6D                    3306 	.db #0x6d	; 109	'm'
      00013D 8B                    3307 	.db #0x8b	; 139
      00013E D1                    3308 	.db #0xd1	; 209
      00013F 25                    3309 	.db #0x25	; 37
      000140 72                    3310 	.db #0x72	; 114	'r'
      000141 F8                    3311 	.db #0xf8	; 248
      000142 F6                    3312 	.db #0xf6	; 246
      000143 64                    3313 	.db #0x64	; 100	'd'
      000144 86                    3314 	.db #0x86	; 134
      000145 68                    3315 	.db #0x68	; 104	'h'
      000146 98                    3316 	.db #0x98	; 152
      000147 16                    3317 	.db #0x16	; 22
      000148 D4                    3318 	.db #0xd4	; 212
      000149 A4                    3319 	.db #0xa4	; 164
      00014A 5C                    3320 	.db #0x5c	; 92
      00014B CC                    3321 	.db #0xcc	; 204
      00014C 5D                    3322 	.db #0x5d	; 93
      00014D 65                    3323 	.db #0x65	; 101	'e'
      00014E B6                    3324 	.db #0xb6	; 182
      00014F 92                    3325 	.db #0x92	; 146
      000150 6C                    3326 	.db #0x6c	; 108	'l'
      000151 70                    3327 	.db #0x70	; 112	'p'
      000152 48                    3328 	.db #0x48	; 72	'H'
      000153 50                    3329 	.db #0x50	; 80	'P'
      000154 FD                    3330 	.db #0xfd	; 253
      000155 ED                    3331 	.db #0xed	; 237
      000156 B9                    3332 	.db #0xb9	; 185
      000157 DA                    3333 	.db #0xda	; 218
      000158 5E                    3334 	.db #0x5e	; 94
      000159 15                    3335 	.db #0x15	; 21
      00015A 46                    3336 	.db #0x46	; 70	'F'
      00015B 57                    3337 	.db #0x57	; 87	'W'
      00015C A7                    3338 	.db #0xa7	; 167
      00015D 8D                    3339 	.db #0x8d	; 141
      00015E 9D                    3340 	.db #0x9d	; 157
      00015F 84                    3341 	.db #0x84	; 132
      000160 90                    3342 	.db #0x90	; 144
      000161 D8                    3343 	.db #0xd8	; 216
      000162 AB                    3344 	.db #0xab	; 171
      000163 00                    3345 	.db #0x00	; 0
      000164 8C                    3346 	.db #0x8c	; 140
      000165 BC                    3347 	.db #0xbc	; 188
      000166 D3                    3348 	.db #0xd3	; 211
      000167 0A                    3349 	.db #0x0a	; 10
      000168 F7                    3350 	.db #0xf7	; 247
      000169 E4                    3351 	.db #0xe4	; 228
      00016A 58                    3352 	.db #0x58	; 88	'X'
      00016B 05                    3353 	.db #0x05	; 5
      00016C B8                    3354 	.db #0xb8	; 184
      00016D B3                    3355 	.db #0xb3	; 179
      00016E 45                    3356 	.db #0x45	; 69	'E'
      00016F 06                    3357 	.db #0x06	; 6
      000170 D0                    3358 	.db #0xd0	; 208
      000171 2C                    3359 	.db #0x2c	; 44
      000172 1E                    3360 	.db #0x1e	; 30
      000173 8F                    3361 	.db #0x8f	; 143
      000174 CA                    3362 	.db #0xca	; 202
      000175 3F                    3363 	.db #0x3f	; 63
      000176 0F                    3364 	.db #0x0f	; 15
      000177 02                    3365 	.db #0x02	; 2
      000178 C1                    3366 	.db #0xc1	; 193
      000179 AF                    3367 	.db #0xaf	; 175
      00017A BD                    3368 	.db #0xbd	; 189
      00017B 03                    3369 	.db #0x03	; 3
      00017C 01                    3370 	.db #0x01	; 1
      00017D 13                    3371 	.db #0x13	; 19
      00017E 8A                    3372 	.db #0x8a	; 138
      00017F 6B                    3373 	.db #0x6b	; 107	'k'
      000180 3A                    3374 	.db #0x3a	; 58
      000181 91                    3375 	.db #0x91	; 145
      000182 11                    3376 	.db #0x11	; 17
      000183 41                    3377 	.db #0x41	; 65	'A'
      000184 4F                    3378 	.db #0x4f	; 79	'O'
      000185 67                    3379 	.db #0x67	; 103	'g'
      000186 DC                    3380 	.db #0xdc	; 220
      000187 EA                    3381 	.db #0xea	; 234
      000188 97                    3382 	.db #0x97	; 151
      000189 F2                    3383 	.db #0xf2	; 242
      00018A CF                    3384 	.db #0xcf	; 207
      00018B CE                    3385 	.db #0xce	; 206
      00018C F0                    3386 	.db #0xf0	; 240
      00018D B4                    3387 	.db #0xb4	; 180
      00018E E6                    3388 	.db #0xe6	; 230
      00018F 73                    3389 	.db #0x73	; 115	's'
      000190 96                    3390 	.db #0x96	; 150
      000191 AC                    3391 	.db #0xac	; 172
      000192 74                    3392 	.db #0x74	; 116	't'
      000193 22                    3393 	.db #0x22	; 34
      000194 E7                    3394 	.db #0xe7	; 231
      000195 AD                    3395 	.db #0xad	; 173
      000196 35                    3396 	.db #0x35	; 53	'5'
      000197 85                    3397 	.db #0x85	; 133
      000198 E2                    3398 	.db #0xe2	; 226
      000199 F9                    3399 	.db #0xf9	; 249
      00019A 37                    3400 	.db #0x37	; 55	'7'
      00019B E8                    3401 	.db #0xe8	; 232
      00019C 1C                    3402 	.db #0x1c	; 28
      00019D 75                    3403 	.db #0x75	; 117	'u'
      00019E DF                    3404 	.db #0xdf	; 223
      00019F 6E                    3405 	.db #0x6e	; 110	'n'
      0001A0 47                    3406 	.db #0x47	; 71	'G'
      0001A1 F1                    3407 	.db #0xf1	; 241
      0001A2 1A                    3408 	.db #0x1a	; 26
      0001A3 71                    3409 	.db #0x71	; 113	'q'
      0001A4 1D                    3410 	.db #0x1d	; 29
      0001A5 29                    3411 	.db #0x29	; 41
      0001A6 C5                    3412 	.db #0xc5	; 197
      0001A7 89                    3413 	.db #0x89	; 137
      0001A8 6F                    3414 	.db #0x6f	; 111	'o'
      0001A9 B7                    3415 	.db #0xb7	; 183
      0001AA 62                    3416 	.db #0x62	; 98	'b'
      0001AB 0E                    3417 	.db #0x0e	; 14
      0001AC AA                    3418 	.db #0xaa	; 170
      0001AD 18                    3419 	.db #0x18	; 24
      0001AE BE                    3420 	.db #0xbe	; 190
      0001AF 1B                    3421 	.db #0x1b	; 27
      0001B0 FC                    3422 	.db #0xfc	; 252
      0001B1 56                    3423 	.db #0x56	; 86	'V'
      0001B2 3E                    3424 	.db #0x3e	; 62
      0001B3 4B                    3425 	.db #0x4b	; 75	'K'
      0001B4 C6                    3426 	.db #0xc6	; 198
      0001B5 D2                    3427 	.db #0xd2	; 210
      0001B6 79                    3428 	.db #0x79	; 121	'y'
      0001B7 20                    3429 	.db #0x20	; 32
      0001B8 9A                    3430 	.db #0x9a	; 154
      0001B9 DB                    3431 	.db #0xdb	; 219
      0001BA C0                    3432 	.db #0xc0	; 192
      0001BB FE                    3433 	.db #0xfe	; 254
      0001BC 78                    3434 	.db #0x78	; 120	'x'
      0001BD CD                    3435 	.db #0xcd	; 205
      0001BE 5A                    3436 	.db #0x5a	; 90	'Z'
      0001BF F4                    3437 	.db #0xf4	; 244
      0001C0 1F                    3438 	.db #0x1f	; 31
      0001C1 DD                    3439 	.db #0xdd	; 221
      0001C2 A8                    3440 	.db #0xa8	; 168
      0001C3 33                    3441 	.db #0x33	; 51	'3'
      0001C4 88                    3442 	.db #0x88	; 136
      0001C5 07                    3443 	.db #0x07	; 7
      0001C6 C7                    3444 	.db #0xc7	; 199
      0001C7 31                    3445 	.db #0x31	; 49	'1'
      0001C8 B1                    3446 	.db #0xb1	; 177
      0001C9 12                    3447 	.db #0x12	; 18
      0001CA 10                    3448 	.db #0x10	; 16
      0001CB 59                    3449 	.db #0x59	; 89	'Y'
      0001CC 27                    3450 	.db #0x27	; 39
      0001CD 80                    3451 	.db #0x80	; 128
      0001CE EC                    3452 	.db #0xec	; 236
      0001CF 5F                    3453 	.db #0x5f	; 95
      0001D0 60                    3454 	.db #0x60	; 96
      0001D1 51                    3455 	.db #0x51	; 81	'Q'
      0001D2 7F                    3456 	.db #0x7f	; 127
      0001D3 A9                    3457 	.db #0xa9	; 169
      0001D4 19                    3458 	.db #0x19	; 25
      0001D5 B5                    3459 	.db #0xb5	; 181
      0001D6 4A                    3460 	.db #0x4a	; 74	'J'
      0001D7 0D                    3461 	.db #0x0d	; 13
      0001D8 2D                    3462 	.db #0x2d	; 45
      0001D9 E5                    3463 	.db #0xe5	; 229
      0001DA 7A                    3464 	.db #0x7a	; 122	'z'
      0001DB 9F                    3465 	.db #0x9f	; 159
      0001DC 93                    3466 	.db #0x93	; 147
      0001DD C9                    3467 	.db #0xc9	; 201
      0001DE 9C                    3468 	.db #0x9c	; 156
      0001DF EF                    3469 	.db #0xef	; 239
      0001E0 A0                    3470 	.db #0xa0	; 160
      0001E1 E0                    3471 	.db #0xe0	; 224
      0001E2 3B                    3472 	.db #0x3b	; 59
      0001E3 4D                    3473 	.db #0x4d	; 77	'M'
      0001E4 AE                    3474 	.db #0xae	; 174
      0001E5 2A                    3475 	.db #0x2a	; 42
      0001E6 F5                    3476 	.db #0xf5	; 245
      0001E7 B0                    3477 	.db #0xb0	; 176
      0001E8 C8                    3478 	.db #0xc8	; 200
      0001E9 EB                    3479 	.db #0xeb	; 235
      0001EA BB                    3480 	.db #0xbb	; 187
      0001EB 3C                    3481 	.db #0x3c	; 60
      0001EC 83                    3482 	.db #0x83	; 131
      0001ED 53                    3483 	.db #0x53	; 83	'S'
      0001EE 99                    3484 	.db #0x99	; 153
      0001EF 61                    3485 	.db #0x61	; 97	'a'
      0001F0 17                    3486 	.db #0x17	; 23
      0001F1 2B                    3487 	.db #0x2b	; 43
      0001F2 04                    3488 	.db #0x04	; 4
      0001F3 7E                    3489 	.db #0x7e	; 126
      0001F4 BA                    3490 	.db #0xba	; 186
      0001F5 77                    3491 	.db #0x77	; 119	'w'
      0001F6 D6                    3492 	.db #0xd6	; 214
      0001F7 26                    3493 	.db #0x26	; 38
      0001F8 E1                    3494 	.db #0xe1	; 225
      0001F9 69                    3495 	.db #0x69	; 105	'i'
      0001FA 14                    3496 	.db #0x14	; 20
      0001FB 63                    3497 	.db #0x63	; 99	'c'
      0001FC 55                    3498 	.db #0x55	; 85	'U'
      0001FD 21                    3499 	.db #0x21	; 33
      0001FE 0C                    3500 	.db #0x0c	; 12
      0001FF 7D                    3501 	.db #0x7d	; 125
      000200                       3502 _Rcon:
      000200 8D                    3503 	.db #0x8d	; 141
      000201 01                    3504 	.db #0x01	; 1
      000202 02                    3505 	.db #0x02	; 2
      000203 04                    3506 	.db #0x04	; 4
      000204 08                    3507 	.db #0x08	; 8
      000205 10                    3508 	.db #0x10	; 16
      000206 20                    3509 	.db #0x20	; 32
      000207 40                    3510 	.db #0x40	; 64
      000208 80                    3511 	.db #0x80	; 128
      000209 1B                    3512 	.db #0x1b	; 27
      00020A 36                    3513 	.db #0x36	; 54	'6'
      00020B 6C                    3514 	.db #0x6c	; 108	'l'
      00020C D8                    3515 	.db #0xd8	; 216
      00020D AB                    3516 	.db #0xab	; 171
      00020E 4D                    3517 	.db #0x4d	; 77	'M'
      00020F 9A                    3518 	.db #0x9a	; 154
      000210 2F                    3519 	.db #0x2f	; 47
      000211 5E                    3520 	.db #0x5e	; 94
      000212 BC                    3521 	.db #0xbc	; 188
      000213 63                    3522 	.db #0x63	; 99	'c'
      000214 C6                    3523 	.db #0xc6	; 198
      000215 97                    3524 	.db #0x97	; 151
      000216 35                    3525 	.db #0x35	; 53	'5'
      000217 6A                    3526 	.db #0x6a	; 106	'j'
      000218 D4                    3527 	.db #0xd4	; 212
      000219 B3                    3528 	.db #0xb3	; 179
      00021A 7D                    3529 	.db #0x7d	; 125
      00021B FA                    3530 	.db #0xfa	; 250
      00021C EF                    3531 	.db #0xef	; 239
      00021D C5                    3532 	.db #0xc5	; 197
      00021E 91                    3533 	.db #0x91	; 145
      00021F 39                    3534 	.db #0x39	; 57	'9'
      000220 72                    3535 	.db #0x72	; 114	'r'
      000221 E4                    3536 	.db #0xe4	; 228
      000222 D3                    3537 	.db #0xd3	; 211
      000223 BD                    3538 	.db #0xbd	; 189
      000224 61                    3539 	.db #0x61	; 97	'a'
      000225 C2                    3540 	.db #0xc2	; 194
      000226 9F                    3541 	.db #0x9f	; 159
      000227 25                    3542 	.db #0x25	; 37
      000228 4A                    3543 	.db #0x4a	; 74	'J'
      000229 94                    3544 	.db #0x94	; 148
      00022A 33                    3545 	.db #0x33	; 51	'3'
      00022B 66                    3546 	.db #0x66	; 102	'f'
      00022C CC                    3547 	.db #0xcc	; 204
      00022D 83                    3548 	.db #0x83	; 131
      00022E 1D                    3549 	.db #0x1d	; 29
      00022F 3A                    3550 	.db #0x3a	; 58
      000230 74                    3551 	.db #0x74	; 116	't'
      000231 E8                    3552 	.db #0xe8	; 232
      000232 CB                    3553 	.db #0xcb	; 203
      000233 8D                    3554 	.db #0x8d	; 141
      000234 01                    3555 	.db #0x01	; 1
      000235 02                    3556 	.db #0x02	; 2
      000236 04                    3557 	.db #0x04	; 4
      000237 08                    3558 	.db #0x08	; 8
      000238 10                    3559 	.db #0x10	; 16
      000239 20                    3560 	.db #0x20	; 32
      00023A 40                    3561 	.db #0x40	; 64
      00023B 80                    3562 	.db #0x80	; 128
      00023C 1B                    3563 	.db #0x1b	; 27
      00023D 36                    3564 	.db #0x36	; 54	'6'
      00023E 6C                    3565 	.db #0x6c	; 108	'l'
      00023F D8                    3566 	.db #0xd8	; 216
      000240 AB                    3567 	.db #0xab	; 171
      000241 4D                    3568 	.db #0x4d	; 77	'M'
      000242 9A                    3569 	.db #0x9a	; 154
      000243 2F                    3570 	.db #0x2f	; 47
      000244 5E                    3571 	.db #0x5e	; 94
      000245 BC                    3572 	.db #0xbc	; 188
      000246 63                    3573 	.db #0x63	; 99	'c'
      000247 C6                    3574 	.db #0xc6	; 198
      000248 97                    3575 	.db #0x97	; 151
      000249 35                    3576 	.db #0x35	; 53	'5'
      00024A 6A                    3577 	.db #0x6a	; 106	'j'
      00024B D4                    3578 	.db #0xd4	; 212
      00024C B3                    3579 	.db #0xb3	; 179
      00024D 7D                    3580 	.db #0x7d	; 125
      00024E FA                    3581 	.db #0xfa	; 250
      00024F EF                    3582 	.db #0xef	; 239
      000250 C5                    3583 	.db #0xc5	; 197
      000251 91                    3584 	.db #0x91	; 145
      000252 39                    3585 	.db #0x39	; 57	'9'
      000253 72                    3586 	.db #0x72	; 114	'r'
      000254 E4                    3587 	.db #0xe4	; 228
      000255 D3                    3588 	.db #0xd3	; 211
      000256 BD                    3589 	.db #0xbd	; 189
      000257 61                    3590 	.db #0x61	; 97	'a'
      000258 C2                    3591 	.db #0xc2	; 194
      000259 9F                    3592 	.db #0x9f	; 159
      00025A 25                    3593 	.db #0x25	; 37
      00025B 4A                    3594 	.db #0x4a	; 74	'J'
      00025C 94                    3595 	.db #0x94	; 148
      00025D 33                    3596 	.db #0x33	; 51	'3'
      00025E 66                    3597 	.db #0x66	; 102	'f'
      00025F CC                    3598 	.db #0xcc	; 204
      000260 83                    3599 	.db #0x83	; 131
      000261 1D                    3600 	.db #0x1d	; 29
      000262 3A                    3601 	.db #0x3a	; 58
      000263 74                    3602 	.db #0x74	; 116	't'
      000264 E8                    3603 	.db #0xe8	; 232
      000265 CB                    3604 	.db #0xcb	; 203
      000266 8D                    3605 	.db #0x8d	; 141
      000267 01                    3606 	.db #0x01	; 1
      000268 02                    3607 	.db #0x02	; 2
      000269 04                    3608 	.db #0x04	; 4
      00026A 08                    3609 	.db #0x08	; 8
      00026B 10                    3610 	.db #0x10	; 16
      00026C 20                    3611 	.db #0x20	; 32
      00026D 40                    3612 	.db #0x40	; 64
      00026E 80                    3613 	.db #0x80	; 128
      00026F 1B                    3614 	.db #0x1b	; 27
      000270 36                    3615 	.db #0x36	; 54	'6'
      000271 6C                    3616 	.db #0x6c	; 108	'l'
      000272 D8                    3617 	.db #0xd8	; 216
      000273 AB                    3618 	.db #0xab	; 171
      000274 4D                    3619 	.db #0x4d	; 77	'M'
      000275 9A                    3620 	.db #0x9a	; 154
      000276 2F                    3621 	.db #0x2f	; 47
      000277 5E                    3622 	.db #0x5e	; 94
      000278 BC                    3623 	.db #0xbc	; 188
      000279 63                    3624 	.db #0x63	; 99	'c'
      00027A C6                    3625 	.db #0xc6	; 198
      00027B 97                    3626 	.db #0x97	; 151
      00027C 35                    3627 	.db #0x35	; 53	'5'
      00027D 6A                    3628 	.db #0x6a	; 106	'j'
      00027E D4                    3629 	.db #0xd4	; 212
      00027F B3                    3630 	.db #0xb3	; 179
      000280 7D                    3631 	.db #0x7d	; 125
      000281 FA                    3632 	.db #0xfa	; 250
      000282 EF                    3633 	.db #0xef	; 239
      000283 C5                    3634 	.db #0xc5	; 197
      000284 91                    3635 	.db #0x91	; 145
      000285 39                    3636 	.db #0x39	; 57	'9'
      000286 72                    3637 	.db #0x72	; 114	'r'
      000287 E4                    3638 	.db #0xe4	; 228
      000288 D3                    3639 	.db #0xd3	; 211
      000289 BD                    3640 	.db #0xbd	; 189
      00028A 61                    3641 	.db #0x61	; 97	'a'
      00028B C2                    3642 	.db #0xc2	; 194
      00028C 9F                    3643 	.db #0x9f	; 159
      00028D 25                    3644 	.db #0x25	; 37
      00028E 4A                    3645 	.db #0x4a	; 74	'J'
      00028F 94                    3646 	.db #0x94	; 148
      000290 33                    3647 	.db #0x33	; 51	'3'
      000291 66                    3648 	.db #0x66	; 102	'f'
      000292 CC                    3649 	.db #0xcc	; 204
      000293 83                    3650 	.db #0x83	; 131
      000294 1D                    3651 	.db #0x1d	; 29
      000295 3A                    3652 	.db #0x3a	; 58
      000296 74                    3653 	.db #0x74	; 116	't'
      000297 E8                    3654 	.db #0xe8	; 232
      000298 CB                    3655 	.db #0xcb	; 203
      000299 8D                    3656 	.db #0x8d	; 141
      00029A 01                    3657 	.db #0x01	; 1
      00029B 02                    3658 	.db #0x02	; 2
      00029C 04                    3659 	.db #0x04	; 4
      00029D 08                    3660 	.db #0x08	; 8
      00029E 10                    3661 	.db #0x10	; 16
      00029F 20                    3662 	.db #0x20	; 32
      0002A0 40                    3663 	.db #0x40	; 64
      0002A1 80                    3664 	.db #0x80	; 128
      0002A2 1B                    3665 	.db #0x1b	; 27
      0002A3 36                    3666 	.db #0x36	; 54	'6'
      0002A4 6C                    3667 	.db #0x6c	; 108	'l'
      0002A5 D8                    3668 	.db #0xd8	; 216
      0002A6 AB                    3669 	.db #0xab	; 171
      0002A7 4D                    3670 	.db #0x4d	; 77	'M'
      0002A8 9A                    3671 	.db #0x9a	; 154
      0002A9 2F                    3672 	.db #0x2f	; 47
      0002AA 5E                    3673 	.db #0x5e	; 94
      0002AB BC                    3674 	.db #0xbc	; 188
      0002AC 63                    3675 	.db #0x63	; 99	'c'
      0002AD C6                    3676 	.db #0xc6	; 198
      0002AE 97                    3677 	.db #0x97	; 151
      0002AF 35                    3678 	.db #0x35	; 53	'5'
      0002B0 6A                    3679 	.db #0x6a	; 106	'j'
      0002B1 D4                    3680 	.db #0xd4	; 212
      0002B2 B3                    3681 	.db #0xb3	; 179
      0002B3 7D                    3682 	.db #0x7d	; 125
      0002B4 FA                    3683 	.db #0xfa	; 250
      0002B5 EF                    3684 	.db #0xef	; 239
      0002B6 C5                    3685 	.db #0xc5	; 197
      0002B7 91                    3686 	.db #0x91	; 145
      0002B8 39                    3687 	.db #0x39	; 57	'9'
      0002B9 72                    3688 	.db #0x72	; 114	'r'
      0002BA E4                    3689 	.db #0xe4	; 228
      0002BB D3                    3690 	.db #0xd3	; 211
      0002BC BD                    3691 	.db #0xbd	; 189
      0002BD 61                    3692 	.db #0x61	; 97	'a'
      0002BE C2                    3693 	.db #0xc2	; 194
      0002BF 9F                    3694 	.db #0x9f	; 159
      0002C0 25                    3695 	.db #0x25	; 37
      0002C1 4A                    3696 	.db #0x4a	; 74	'J'
      0002C2 94                    3697 	.db #0x94	; 148
      0002C3 33                    3698 	.db #0x33	; 51	'3'
      0002C4 66                    3699 	.db #0x66	; 102	'f'
      0002C5 CC                    3700 	.db #0xcc	; 204
      0002C6 83                    3701 	.db #0x83	; 131
      0002C7 1D                    3702 	.db #0x1d	; 29
      0002C8 3A                    3703 	.db #0x3a	; 58
      0002C9 74                    3704 	.db #0x74	; 116	't'
      0002CA E8                    3705 	.db #0xe8	; 232
      0002CB CB                    3706 	.db #0xcb	; 203
      0002CC 8D                    3707 	.db #0x8d	; 141
      0002CD 01                    3708 	.db #0x01	; 1
      0002CE 02                    3709 	.db #0x02	; 2
      0002CF 04                    3710 	.db #0x04	; 4
      0002D0 08                    3711 	.db #0x08	; 8
      0002D1 10                    3712 	.db #0x10	; 16
      0002D2 20                    3713 	.db #0x20	; 32
      0002D3 40                    3714 	.db #0x40	; 64
      0002D4 80                    3715 	.db #0x80	; 128
      0002D5 1B                    3716 	.db #0x1b	; 27
      0002D6 36                    3717 	.db #0x36	; 54	'6'
      0002D7 6C                    3718 	.db #0x6c	; 108	'l'
      0002D8 D8                    3719 	.db #0xd8	; 216
      0002D9 AB                    3720 	.db #0xab	; 171
      0002DA 4D                    3721 	.db #0x4d	; 77	'M'
      0002DB 9A                    3722 	.db #0x9a	; 154
      0002DC 2F                    3723 	.db #0x2f	; 47
      0002DD 5E                    3724 	.db #0x5e	; 94
      0002DE BC                    3725 	.db #0xbc	; 188
      0002DF 63                    3726 	.db #0x63	; 99	'c'
      0002E0 C6                    3727 	.db #0xc6	; 198
      0002E1 97                    3728 	.db #0x97	; 151
      0002E2 35                    3729 	.db #0x35	; 53	'5'
      0002E3 6A                    3730 	.db #0x6a	; 106	'j'
      0002E4 D4                    3731 	.db #0xd4	; 212
      0002E5 B3                    3732 	.db #0xb3	; 179
      0002E6 7D                    3733 	.db #0x7d	; 125
      0002E7 FA                    3734 	.db #0xfa	; 250
      0002E8 EF                    3735 	.db #0xef	; 239
      0002E9 C5                    3736 	.db #0xc5	; 197
      0002EA 91                    3737 	.db #0x91	; 145
      0002EB 39                    3738 	.db #0x39	; 57	'9'
      0002EC 72                    3739 	.db #0x72	; 114	'r'
      0002ED E4                    3740 	.db #0xe4	; 228
      0002EE D3                    3741 	.db #0xd3	; 211
      0002EF BD                    3742 	.db #0xbd	; 189
      0002F0 61                    3743 	.db #0x61	; 97	'a'
      0002F1 C2                    3744 	.db #0xc2	; 194
      0002F2 9F                    3745 	.db #0x9f	; 159
      0002F3 25                    3746 	.db #0x25	; 37
      0002F4 4A                    3747 	.db #0x4a	; 74	'J'
      0002F5 94                    3748 	.db #0x94	; 148
      0002F6 33                    3749 	.db #0x33	; 51	'3'
      0002F7 66                    3750 	.db #0x66	; 102	'f'
      0002F8 CC                    3751 	.db #0xcc	; 204
      0002F9 83                    3752 	.db #0x83	; 131
      0002FA 1D                    3753 	.db #0x1d	; 29
      0002FB 3A                    3754 	.db #0x3a	; 58
      0002FC 74                    3755 	.db #0x74	; 116	't'
      0002FD E8                    3756 	.db #0xe8	; 232
      0002FE CB                    3757 	.db #0xcb	; 203
                                   3758 	.area XINIT   (CODE)
                                   3759 	.area CABS    (ABS,CODE)
